(lp0
F1.0
aF1.4142135623730951
aF1.7320508075688772
aF2.0
aF2.23606797749979
aF2.449489742783178
aF2.6457513110645907
aF2.8284271247461903
aF3.0
aF3.1622776601683795
aF3.3166247903554
aF3.4641016151377544
aF3.605551275463989
aF3.7416573867739413
aF3.872983346207417
aF4.0
aF4.123105625617661
aF4.242640687119285
aF4.358898943540674
aF4.47213595499958
aF4.58257569495584
aF4.69041575982343
aF4.795831523312719
aF4.898979485566356
aF5.0
aF5.0990195135927845
aF5.196152422706632
aF5.291502622129181
aF5.385164807134504
aF5.477225575051661
aF5.5677643628300215
aF5.656854249492381
aF5.744562646538029
aF5.830951894845301
aF5.916079783099616
aF6.0
aF6.082762530298219
aF6.164414002968976
aF6.244997998398398
aF6.324555320336759
aF6.4031242374328485
aF6.48074069840786
aF6.557438524302
aF6.6332495807108
aF6.708203932499369
aF6.782329983125268
aF6.855654600401044
aF6.928203230275509
aF7.0
aF7.0710678118654755
aF7.14142842854285
aF7.211102550927978
aF7.280109889280518
aF7.3484692283495345
aF7.416198487095663
aF7.483314773547883
aF7.54983443527075
aF7.615773105863909
aF7.681145747868608
aF7.745966692414834
aF7.810249675906654
aF7.874007874011811
aF7.937253933193772
aF8.0
aF8.06225774829855
aF8.12403840463596
aF8.18535277187245
aF8.246211251235321
aF8.306623862918075
aF8.366600265340756
aF8.426149773176359
aF8.48528137423857
aF8.54400374531753
aF8.602325267042627
aF8.660254037844387
aF8.717797887081348
aF8.774964387392123
aF8.831760866327848
aF8.888194417315589
aF8.94427190999916
aF9.0
aF9.055385138137417
aF9.1104335791443
aF9.16515138991168
aF9.219544457292887
aF9.273618495495704
aF9.327379053088816
aF9.38083151964686
aF9.433981132056603
aF9.486832980505138
aF9.539392014169456
aF9.591663046625438
aF9.643650760992955
aF9.695359714832659
aF9.746794344808963
aF9.797958971132712
aF9.848857801796104
aF9.899494936611665
aF9.9498743710662
aF10.0
aF10.04987562112089
aF10.099504938362077
aF10.14889156509222
aF10.198039027185569
aF10.246950765959598
aF10.295630140987
aF10.344080432788601
aF10.392304845413264
aF10.44030650891055
aF10.488088481701515
aF10.535653752852738
aF10.583005244258363
aF10.63014581273465
aF10.677078252031311
aF10.723805294763608
aF10.770329614269007
aF10.816653826391969
aF10.862780491200215
aF10.908712114635714
aF10.954451150103322
aF11.0
aF11.045361017187261
aF11.090536506409418
aF11.135528725660043
aF11.180339887498949
aF11.224972160321824
aF11.269427669584644
aF11.313708498984761
aF11.357816691600547
aF11.40175425099138
aF11.445523142259598
aF11.489125293076057
aF11.532562594670797
aF11.575836902790225
aF11.61895003862225
aF11.661903789690601
aF11.704699910719626
aF11.74734012447073
aF11.789826122551595
aF11.832159566199232
aF11.874342087037917
aF11.916375287812984
aF11.958260743101398
aF12.0
aF12.041594578792296
aF12.083045973594572
aF12.12435565298214
aF12.165525060596439
aF12.206555615733702
aF12.24744871391589
aF12.288205727444508
aF12.328828005937952
aF12.36931687685298
aF12.409673645990857
aF12.449899597988733
aF12.489995996796797
aF12.529964086141668
aF12.569805089976535
aF12.609520212918492
aF12.649110640673518
aF12.68857754044952
aF12.727922061357855
aF12.767145334803704
aF12.806248474865697
aF12.84523257866513
aF12.884098726725126
aF12.922847983320086
aF12.96148139681572
aF13.0
aF13.038404810405298
aF13.076696830622021
aF13.114877048604
aF13.152946437965905
aF13.19090595827292
aF13.228756555322953
aF13.2664991614216
aF13.30413469565007
aF13.341664064126334
aF13.379088160259652
aF13.416407864998739
aF13.45362404707371
aF13.490737563232042
aF13.527749258468683
aF13.564659966250536
aF13.601470508735444
aF13.638181696985855
aF13.674794331177344
aF13.711309200802088
aF13.74772708486752
aF13.784048752090222
aF13.820274961085254
aF13.856406460551018
aF13.892443989449804
aF13.92838827718412
aF13.96424004376894
aF14.0
aF14.035668847618199
aF14.071247279470288
aF14.106735979665885
aF14.142135623730951
aF14.177446878757825
aF14.212670403551895
aF14.247806848775006
aF14.2828568570857
aF14.317821063276353
aF14.352700094407323
aF14.38749456993816
aF14.422205101855956
aF14.45683229480096
aF14.491376746189438
aF14.52583904633395
aF14.560219778561036
aF14.594519519326424
aF14.628738838327793
aF14.66287829861518
aF14.696938456699069
aF14.730919862656235
aF14.7648230602334
aF14.798648586948742
aF14.832396974191326
aF14.866068747318506
aF14.89966442575134
aF14.933184523068078
aF14.966629547095765
aF15.0
aF15.033296378372908
aF15.066519173319364
aF15.0996688705415
aF15.132745950421556
aF15.165750888103101
aF15.198684153570664
aF15.231546211727817
aF15.264337522473747
aF15.297058540778355
aF15.329709716755891
aF15.362291495737216
aF15.394804318340652
aF15.427248620541512
aF15.459624833740307
aF15.491933384829668
aF15.524174696260024
aF15.556349186104045
aF15.588457268119896
aF15.620499351813308
aF15.652475842498529
aF15.684387141358123
aF15.716233645501712
aF15.748015748023622
aF15.7797338380595
aF15.811388300841896
aF15.84297951775486
aF15.874507866387544
aF15.905973720586866
aF15.937377450509228
aF15.968719422671311
aF16.0
aF16.0312195418814
aF16.06237840420901
aF16.09347693943108
aF16.1245154965971
aF16.15549442140351
aF16.186414056238647
aF16.217274740226856
aF16.24807680927192
aF16.278820596099706
aF16.30950643030009
aF16.34013463836819
aF16.3707055437449
aF16.401219466856727
aF16.431676725154983
aF16.46207763315433
aF16.492422502470642
aF16.522711641858304
aF16.55294535724685
aF16.583123951777
aF16.61324772583615
aF16.64331697709324
aF16.673332000533065
aF16.703293088490067
aF16.73320053068151
aF16.76305461424021
aF16.792855623746664
aF16.822603841260722
aF16.852299546352718
aF16.881943016134134
aF16.911534525287763
aF16.941074346097416
aF16.97056274847714
aF17.0
aF17.029386365926403
aF17.05872210923198
aF17.08800749063506
aF17.11724276862369
aF17.146428199482248
aF17.175564037317667
aF17.204650534085253
aF17.233687939614086
aF17.26267650163207
aF17.291616465790582
aF17.320508075688775
aF17.349351572897472
aF17.378147196982766
aF17.406895185529212
aF17.435595774162696
aF17.46424919657298
aF17.4928556845359
aF17.52141546793523
aF17.549928774784245
aF17.578395831246947
aF17.60681686165901
aF17.635192088548397
aF17.663521732655695
aF17.69180601295413
aF17.72004514666935
aF17.74823934929885
aF17.776388834631177
aF17.804493814764857
aF17.832554500127006
aF17.86057109949175
aF17.88854381999832
aF17.916472867168917
aF17.944358444926362
aF17.97220075561143
aF18.0
aF18.027756377319946
aF18.05547008526779
aF18.083141320025124
aF18.110770276274835
aF18.138357147217054
aF18.16590212458495
aF18.193405398660254
aF18.2208671582886
aF18.24828759089466
aF18.275666882497067
aF18.303005217723125
aF18.33030277982336
aF18.35755975068582
aF18.384776310850235
aF18.411952639521967
aF18.439088914585774
aF18.466185312619388
aF18.49324200890693
aF18.520259177452136
aF18.547236990991408
aF18.57417562100671
aF18.601075237738275
aF18.627936010197157
aF18.65475810617763
aF18.681541692269406
aF18.708286933869708
aF18.734993995195193
aF18.76166303929372
aF18.788294228055936
aF18.81488772222678
aF18.841443681416774
aF18.867962264113206
aF18.894443627691185
aF18.920887928424502
aF18.947295321496416
aF18.973665961010276
aF19.0
aF19.026297590440446
aF19.05255888325765
aF19.078784028338912
aF19.1049731745428
aF19.131126469708992
aF19.157244060668017
aF19.183326093250876
aF19.209372712298546
aF19.235384061671343
aF19.261360284258224
aF19.28730152198591
aF19.313207915827967
aF19.339079605813716
aF19.364916731037084
aF19.390719429665317
aF19.4164878389476
aF19.44222209522358
aF19.467922333931785
aF19.493588689617926
aF19.519221295943137
aF19.544820285692065
aF19.570385790780925
aF19.595917942265423
aF19.621416870348583
aF19.6468827043885
aF19.672315572906
aF19.697715603592208
aF19.72308292331602
aF19.748417658131498
aF19.77371993328519
aF19.79898987322333
aF19.82422760159901
aF19.849433241279208
aF19.87460691435179
aF19.8997487421324
aF19.924858845171276
aF19.949937343260004
aF19.974984355438178
aF20.0
aF20.024984394500787
aF20.049937655763422
aF20.074859899884732
aF20.09975124224178
aF20.12461179749811
aF20.149441679609886
aF20.174241001832016
aF20.199009876724155
aF20.223748416156685
aF20.248456731316587
aF20.273134932713294
aF20.29778313018444
aF20.322401432901575
aF20.346989949375804
aF20.37154878746336
aF20.396078054371138
aF20.42057785666214
aF20.445048300260872
aF20.46948949045872
aF20.493901531919196
aF20.518284528683193
aF20.54263858417414
aF20.566963801203133
aF20.591260281974
aF20.615528128088304
aF20.639767440550294
aF20.663978319771825
aF20.688160865577203
aF20.71231517720798
aF20.73644135332772
aF20.760539492026695
aF20.784609690826528
aF20.808652046684813
aF20.83266665599966
aF20.85665361461421
aF20.8806130178211
aF20.904544960366874
aF20.92844953645635
aF20.952326839756964
aF20.97617696340303
aF21.0
aF21.02379604162864
aF21.047565179849187
aF21.071307505705477
aF21.095023109728988
aF21.118712081942874
aF21.142374511865974
aF21.166010488516726
aF21.18962010041709
aF21.213203435596427
aF21.236760581595302
aF21.2602916254693
aF21.283796653792763
aF21.307275752662516
aF21.330729007701542
aF21.354156504062622
aF21.37755832643195
aF21.400934559032695
aF21.42428528562855
aF21.447610589527216
aF21.470910553583888
aF21.494185260204677
aF21.517434791350013
aF21.540659228538015
aF21.563858652847824
aF21.587033144922902
aF21.61018278497431
aF21.633307652783937
aF21.656407827707714
aF21.6794833886788
aF21.702534414210707
aF21.72556098240043
aF21.748563170931547
aF21.77154105707724
aF21.79449471770337
aF21.817424229271428
aF21.840329667841555
aF21.863211109075447
aF21.88606862823929
aF21.908902300206645
aF21.93171219946131
aF21.95449840010015
aF21.97726097583591
aF22.0
aF22.02271554554524
aF22.045407685048602
aF22.06807649071391
aF22.090722034374522
aF22.11334438749598
aF22.135943621178654
aF22.15851980616034
aF22.181073012818835
aF22.20360331117452
aF22.22611077089287
aF22.24859546128699
aF22.271057451320086
aF22.293496809607955
aF22.315913604421397
aF22.338307903688676
aF22.360679774997898
aF22.38302928559939
aF22.40535650240808
aF22.427661492005804
aF22.44994432064365
aF22.47220505424423
aF22.494443758403985
aF22.516660498395403
aF22.538855339169288
aF22.561028345356956
aF22.58317958127243
aF22.60530911091463
aF22.627416997969522
aF22.64950330581225
aF22.67156809750927
aF22.693611435820433
aF22.715633383201094
aF22.737634001804146
aF22.759613353482084
aF22.781571499789035
aF22.80350850198276
aF22.825424421026653
aF22.847319317591726
aF22.869193252058544
aF22.891046284519195
aF22.9128784747792
aF22.93468988235943
aF22.956480566497994
aF22.978250586152114
aF23.0
aF23.021728866442675
aF23.043437243605826
aF23.065125189341593
aF23.08679276123039
aF23.108440016582687
aF23.130067012440755
aF23.15167380558045
aF23.173260452512935
aF23.194827009486403
aF23.2163735324878
aF23.2379000772445
aF23.259406699226016
aF23.280893453645632
aF23.302360395462088
aF23.323807579381203
aF23.345235059857504
aF23.366642891095847
aF23.388031127053
aF23.40939982143925
aF23.430749027719962
aF23.45207879911715
aF23.473389188611005
aF23.49468024894146
aF23.515952032609693
aF23.53720459187964
aF23.558437978779494
aF23.57965224510319
aF23.600847442411894
aF23.62202362203543
aF23.643180835073778
aF23.664319132398465
aF23.68543856465402
aF23.706539182259394
aF23.727621035409346
aF23.748684174075834
aF23.769728648009426
aF23.790754506740637
aF23.811761799581316
aF23.83275057562597
aF23.853720883753127
aF23.874672772626646
aF23.895606290697042
aF23.916521486202797
aF23.93741840717165
aF23.958297101421877
aF23.979157616563597
aF24.0
aF24.020824298928627
aF24.041630560342615
aF24.06241883103193
aF24.08318915758459
aF24.1039415863879
aF24.124676163629637
aF24.145392935299274
aF24.166091947189145
aF24.186773244895647
aF24.20743687382041
aF24.228082879171435
aF24.24871130596428
aF24.269322199023193
aF24.289915602982237
aF24.310491562286437
aF24.331050121192877
aF24.351591323771842
aF24.372115213907882
aF24.392621835300936
aF24.413111231467404
aF24.43358344574123
aF24.454038521274967
aF24.474476501040833
aF24.49489742783178
aF24.515301344262525
aF24.535688292770594
aF24.55605831561735
aF24.576411454889016
aF24.596747752497688
aF24.61706725018234
aF24.63736998950984
aF24.657656011875904
aF24.677925358506133
aF24.698178070456937
aF24.71841418861655
aF24.73863375370596
aF24.758836806279895
aF24.779023386727733
aF24.79919353527449
aF24.819347291981714
aF24.839484696748443
aF24.859605789312106
aF24.879710609249457
aF24.899799195977465
aF24.919871588754223
aF24.939927826679853
aF24.95996794869737
aF24.979991993593593
aF25.0
aF25.019992006393608
aF25.03996805109783
aF25.059928172283335
aF25.079872407968907
aF25.099800796022265
aF25.11971337416094
aF25.13961017995307
aF25.15949125081825
aF25.179356624028344
aF25.199206336708304
aF25.219040425836983
aF25.238858928247925
aF25.25866188063018
aF25.278449319529077
aF25.298221281347036
aF25.317977802344327
aF25.337718918639855
aF25.357444666211933
aF25.37715508089904
aF25.39685019840059
aF25.41653005427767
aF25.436194683953808
aF25.45584412271571
aF25.475478405713993
aF25.495097567963924
aF25.514701644346147
aF25.534290669607408
aF25.553864678361276
aF25.573423705088842
aF25.592967784139454
aF25.612496949731394
aF25.632011235952593
aF25.65151067676132
aF25.67099530598687
aF25.69046515733026
aF25.709920264364882
aF25.729360660537214
aF25.748786379167466
aF25.768197453450252
aF25.787593916455254
aF25.80697580112788
aF25.826343140289914
aF25.84569596664017
aF25.865034312755125
aF25.88435821108957
aF25.903667693977237
aF25.92296279363144
aF25.942243542145693
aF25.96150997149434
aF25.98076211353316
aF26.0
aF26.019223662515376
aF26.038433132583073
aF26.057628441590765
aF26.076809620810597
aF26.095976701399778
aF26.115129714401192
aF26.13426869074396
aF26.153393661244042
aF26.1725046566048
aF26.19160170741759
aF26.210684844162312
aF26.229754097208
aF26.248809496813376
aF26.267851073127396
aF26.28687885618983
aF26.30589287593181
aF26.324893162176366
aF26.343879744638983
aF26.362852652928137
aF26.38181191654584
aF26.40075756488817
aF26.419689627245813
aF26.43860813280457
aF26.457513110645905
aF26.476404589747453
aF26.49528259898354
aF26.514147167125703
aF26.5329983228432
aF26.551836094703507
aF26.570660511172846
aF26.589471600616662
aF26.60826939130014
aF26.627053911388696
aF26.645825188948457
aF26.664583251946766
aF26.68332812825267
aF26.70205984563738
aF26.720778431774775
aF26.739483914241877
aF26.758176320519304
aF26.77685567799177
aF26.795522013948524
aF26.814175355583846
aF26.832815729997478
aF26.851443164195103
aF26.870057685088806
aF26.888659319497503
aF26.90724809414742
aF26.92582403567252
aF26.94438717061496
aF26.962937525425527
aF26.981475126464083
aF27.0
aF27.018512172212592
aF27.03701166919155
aF27.055498516937366
aF27.073972741361768
aF27.09243436828813
aF27.110883423451916
aF27.129319932501073
aF27.147743920996454
aF27.16615541441225
aF27.184554438136374
aF27.202941017470888
aF27.2213151776324
aF27.23967694375247
aF27.258026340878022
aF27.27636339397171
aF27.294688127912362
aF27.313000567495326
aF27.331300737432898
aF27.349588662354687
aF27.367864366808018
aF27.386127875258307
aF27.40437921208944
aF27.422618401604176
aF27.440845468024488
aF27.459060435491963
aF27.477263328068172
aF27.49545416973504
aF27.51363298439521
aF27.53179979587241
aF27.54995462791182
aF27.568097504180443
aF27.586228448267445
aF27.60434748368452
aF27.622454633866266
aF27.640549922170507
aF27.65863337187866
aF27.676705006196094
aF27.694764848252458
aF27.712812921102035
aF27.730849247724095
aF27.748873851023216
aF27.76688675382964
aF27.784887978899608
aF27.80287754891569
aF27.820855486487112
aF27.83882181415011
aF27.85677655436824
aF27.874719729532707
aF27.892651361962706
aF27.910571473905726
aF27.92848008753788
aF27.94637722496424
aF27.964262908219126
aF27.982137159266443
aF28.0
aF28.0178514522438
aF28.035691537752374
aF28.053520278211074
aF28.071337695236398
aF28.089143810376278
aF28.106938645110393
aF28.124722220850465
aF28.142494558940577
aF28.160255680657446
aF28.178005607210743
aF28.19574435974337
aF28.21347195933177
aF28.231188426986208
aF28.24889378365107
aF28.26658805020514
aF28.284271247461902
aF28.30194339616981
aF28.319604517012593
aF28.337254630609507
aF28.35489375751565
aF28.372521918222215
aF28.39013913315678
aF28.407745422683583
aF28.42534080710379
aF28.442925306655784
aF28.460498941515414
aF28.478061731796284
aF28.495613697550013
aF28.513154858766505
aF28.53068523537421
aF28.548204847240395
aF28.5657137141714
aF28.583211855912904
aF28.600699292150182
aF28.61817604250837
aF28.635642126552707
aF28.653097563788805
aF28.6705423736629
aF28.687976575562104
aF28.705400188814647
aF28.722813232690143
aF28.74021572639983
aF28.75760768909681
aF28.77498913987632
aF28.792360097775937
aF28.809720581775867
aF28.827070610799147
aF28.844410203711913
aF28.861739379323623
aF28.879058156387302
aF28.89636655359978
aF28.91366458960192
aF28.930952282978865
aF28.948229652260256
aF28.965496715920477
aF28.982753492378876
aF29.0
aF29.017236257093817
aF29.03446228191595
aF29.0516780926679
aF29.068883707497267
aF29.086079144497972
aF29.103264421710495
aF29.120439557122072
aF29.13760456866693
aF29.154759474226502
aF29.171904291629644
aF29.189039038652847
aF29.206163733020468
aF29.223278392404914
aF29.24038303442689
aF29.257477676655586
aF29.274562336608895
aF29.29163703175362
aF29.30870177950569
aF29.32575659723036
aF29.34280150224242
aF29.359836511806396
aF29.376861643136763
aF29.393876913398138
aF29.410882339705484
aF29.427877939124322
aF29.444863728670914
aF29.46183972531247
aF29.478805945967352
aF29.49576240750525
aF29.512709126747414
aF29.5296461204668
aF29.546573405388315
aF29.563490998188964
aF29.58039891549808
aF29.597297173897484
aF29.614185789921695
aF29.631064780058107
aF29.647934160747187
aF29.664793948382652
aF29.68164415931166
aF29.698484809834994
aF29.715315916207253
aF29.732137494637012
aF29.748949561287034
aF29.765752132274432
aF29.782545223670862
aF29.79932885150268
aF29.816103031751148
aF29.832867780352597
aF29.8496231131986
aF29.866369046136157
aF29.88310559496787
aF29.899832775452108
aF29.916550603303182
aF29.93325909419153
aF29.949958263743873
aF29.966648127543394
aF29.9833287011299
aF30.0
aF30.01666203960727
aF30.033314835362415
aF30.04995840263344
aF30.066592756745816
aF30.083217912982647
aF30.099833886584822
aF30.116440692751194
aF30.133038346638727
aF30.14962686336267
aF30.166206257996713
aF30.18277654557314
aF30.199337741083
aF30.215889859476256
aF30.23243291566195
aF30.24896692450835
aF30.265491900843113
aF30.28200785945344
aF30.298514815086232
aF30.315012782448235
aF30.331501776206203
aF30.347981810987037
aF30.364452901377952
aF30.380915061926625
aF30.397368307141328
aF30.4138126514911
aF30.430248109405877
aF30.44667469527666
aF30.463092423455635
aF30.479501308256342
aF30.495901363953813
aF30.512292604784715
aF30.528675044947494
aF30.54504869860253
aF30.56141357987225
aF30.577769702841312
aF30.59411708155671
aF30.610455730027933
aF30.62678566222711
aF30.643106892089126
aF30.659419433511783
aF30.675723300355934
aF30.692018506445613
aF30.708305065568176
aF30.72458299147443
aF30.740852297878796
aF30.757112998459398
aF30.773365106858236
aF30.789608636681304
aF30.805843601498726
aF30.822070014844883
aF30.83828789021855
aF30.854497241083024
aF30.870698080866262
aF30.886890422961002
aF30.903074280724887
aF30.919249667480614
aF30.93541659651604
aF30.95157508108432
aF30.967725134404045
aF30.983866769659336
aF31.0
aF31.016124838541646
aF31.0322412983658
aF31.04834939252005
aF31.064449134018133
aF31.080540535840107
aF31.096623610932426
aF31.11269837220809
aF31.12876483254676
aF31.144823004794873
aF31.160872901765767
aF31.176914536239792
aF31.192947920964443
aF31.20897306865447
aF31.22498999199199
aF31.240998703626616
aF31.25699921617557
aF31.272991542223778
aF31.28897569432403
aF31.304951684997057
aF31.32091952673165
aF31.336879231984796
aF31.352830813181765
aF31.368774282716245
aF31.38470965295043
aF31.400636936215164
aF31.416556144810016
aF31.432467291003423
aF31.448370387032774
aF31.464265445104548
aF31.480152477394387
aF31.496031496047245
aF31.51190251317746
aF31.52776554086889
aF31.54362059117501
aF31.559467676119
aF31.575306807693888
aF31.591137997862628
aF31.606961258558215
aF31.622776601683793
aF31.63858403911275
aF31.654383582688826
aF31.670175244226233
aF31.68595903550972
aF31.701734968294716
aF31.71750305430741
aF31.73326330524486
aF31.74901573277509
aF31.76476034853718
aF31.78049716414141
aF31.796226191169293
aF31.811947441173732
aF31.827660925679098
aF31.843366656181317
aF31.85906464414798
aF31.874754901018456
aF31.89043743820395
aF31.906112267087632
aF31.921779399024736
aF31.937438845342623
aF31.953090617340916
aF31.96873472629156
aF31.984371183438952
aF32.0
aF32.01562118716424
aF32.03123475609393
aF32.046840717924134
aF32.0624390837628
aF32.07802986469088
aF32.09361307176243
aF32.109188716004645
aF32.12475680841802
aF32.14031735997639
aF32.155870381627054
aF32.17141588429082
aF32.18695387886216
aF32.202484376209235
aF32.218007387174026
aF32.2335229225724
aF32.2490309931942
aF32.264531609803356
aF32.28002478313795
aF32.29551052391029
aF32.31098884280702
aF32.32645975048923
aF32.341923257592455
aF32.357379374726875
aF32.37282811247729
aF32.38826948140329
aF32.4037034920393
aF32.41913015489465
aF32.43454948045371
aF32.449961479175904
aF32.46536616149585
aF32.48076353782343
aF32.49615361854384
aF32.51153641401772
aF32.526911934581186
aF32.54228019054596
aF32.55764119219941
aF32.57299494980466
aF32.58834147360065
aF32.60368077380221
aF32.61901286060018
aF32.63433774416144
aF32.64965543462902
aF32.66496594212215
aF32.68026927673638
aF32.69556544854363
aF32.71085446759225
aF32.72613634390714
aF32.7414110874898
aF32.7566787083184
aF32.77193921634788
aF32.78719262151
aF32.802438933713454
aF32.817678162843876
aF32.83291031876401
aF32.848135411313685
aF32.863353450309965
aF32.87856444554719
aF32.89376840679705
aF32.90896534380867
aF32.92415526630866
aF32.93933818400121
aF32.95451410656816
aF32.96968304366907
aF32.984845004941285
aF33.0
aF33.015148038438355
aF33.03028912982749
aF33.04542328371661
aF33.06055050963308
aF33.075670817082454
aF33.090784215548595
aF33.1058907144937
aF33.12099032335839
aF33.13608305156178
aF33.15116890850155
aF33.166247903554
aF33.18132004607411
aF33.19638534539566
aF33.21144381083123
aF33.2264954516723
aF33.24154027718932
aF33.25657829663178
aF33.27160951922825
aF33.28663395418648
aF33.301651610693426
aF33.31666249791537
aF33.331666624997915
aF33.34666400106613
aF33.36165463522455
aF33.37663853655727
aF33.391615714128
aF33.406586176980134
aF33.421549934136806
aF33.436506994600975
aF33.45145736735546
aF33.46640106136302
aF33.481338085566414
aF33.49626844888845
aF33.51119216023208
aF33.52610922848042
aF33.54101966249684
aF33.555923471125034
aF33.57082066318904
aF33.58571124749333
aF33.60059523282288
aF33.61547262794322
aF33.63034344160047
aF33.645207682521445
aF33.66006535941367
aF33.67491648096547
aF33.689761055846034
aF33.704599092705436
aF33.71943060017473
aF33.734255586866
aF33.74907406137241
aF33.76388603226827
aF33.77869150810907
aF33.793490497431605
aF33.80828300875393
aF33.823069050575526
aF33.83784863137726
aF33.85262175962151
aF33.8673884437522
aF33.88214869219483
aF33.896902513356586
aF33.91164991562634
aF33.926390907374746
aF33.94112549695428
aF33.95585369269929
aF33.97057550292606
aF33.98529093593286
aF34.0
aF34.0147027033899
aF34.02939905434711
aF34.044089061098404
aF34.058772731852805
aF34.07345007480164
aF34.08812109811862
aF34.10278580995987
aF34.11744421846396
aF34.132096331752024
aF34.14674215792775
aF34.161381705077446
aF34.17601498127012
aF34.19064199455752
aF34.20526275297414
aF34.219877264537345
aF34.23448553724738
aF34.249087579087416
aF34.26368339802363
aF34.27827300200522
aF34.292856398964496
aF34.307433596816885
aF34.322004603461025
aF34.336569426778794
aF34.351128074635334
aF34.36568055487916
aF34.38022687534217
aF34.39476704383968
aF34.40930106817051
aF34.42382895611701
aF34.438350715445125
aF34.45286635390443
aF34.46737587922817
aF34.48187929913333
aF34.49637662132068
aF34.51086785347479
aF34.52535300326414
aF34.539832078341085
aF34.55430508634199
aF34.56877203488721
aF34.583232931581165
aF34.597687784012386
aF34.61213659975356
aF34.62657938636157
aF34.64101615137755
aF34.655446902326915
aF34.66987164671943
aF34.68429039204925
aF34.698703145794944
aF34.713109915419565
aF34.72751070837067
aF34.741905532080416
aF34.75629439396553
aF34.77067730142742
aF34.785054261852174
aF34.79942528261063
aF34.813790371058424
aF34.828149534535996
aF34.84250278036869
aF34.85685011586675
aF34.87119154832539
aF34.88552708502482
aF34.899856733230294
aF34.91418050019218
aF34.92849839314596
aF34.942810419312295
aF34.95711658589707
aF34.97141690009142
aF34.9857113690718
aF35.0
aF35.014282800023196
aF35.02855977627399
aF35.04283093587046
aF35.05709628591621
aF35.07135583350036
aF35.08560958569767
aF35.09985754956849
aF35.11409973215888
aF35.12833614050059
aF35.14256678161116
aF35.156791662493895
aF35.17101079013795
aF35.185224171518364
aF35.199431813596085
aF35.21363372331802
aF35.22782990761707
aF35.24202037341219
aF35.25620512760839
aF35.270384177096794
aF35.2845575287547
aF35.298725189445584
aF35.31288716601915
aF35.32704346531139
aF35.34119409414458
aF35.35533905932738
aF35.369478367654786
aF35.38361202590826
aF35.397740040855716
aF35.41186241925155
aF35.4259791678367
aF35.4400902933387
aF35.45419580247167
aF35.4682957019364
aF35.482389998420345
aF35.4964786985977
aF35.510561809129406
aF35.52463933666322
aF35.53871128783372
aF35.552777669262355
aF35.566838487557476
aF35.58089374931439
aF35.59494346111537
aF35.608987629529715
aF35.62302626111375
aF35.63705936241092
aF35.651086939951774
aF35.66510900025401
aF35.679125549822544
aF35.6931365951495
aF35.70714214271425
aF35.7211421989835
aF35.73513677041127
aF35.749125863438955
aF35.76310948449533
aF35.77708763999664
aF35.79106033634656
aF35.805027579936315
aF35.81898937714463
aF35.832945734337834
aF35.84689665786984
aF35.86084215408221
aF35.874782229304195
aF35.888716889852724
aF35.90264614203248
aF35.91656999213594
aF35.93048844644336
aF35.94440151122286
aF35.958309192730404
aF35.9722114972099
aF35.98610843089316
aF36.0
aF36.013886210738214
aF36.02776706930364
aF36.0416425818802
aF36.05551275463989
aF36.069377593742864
aF36.08323710533743
aF36.09709129556009
aF36.11094017053558
aF36.124783736376884
aF36.138621999185304
aF36.15245496505044
aF36.16628264005025
aF36.180105030251084
aF36.193922141707716
aF36.207733980463345
aF36.22154055254967
aF36.235341863986875
aF36.24913792078372
aF36.26292872893749
aF36.27671429443411
aF36.29049462324811
aF36.30426972134269
aF36.318039594669756
aF36.3318042491699
aF36.345563690772494
aF36.359317925395686
aF36.373066958946424
aF36.38681079732051
aF36.40054944640259
aF36.41428291206625
aF36.42801120017397
aF36.4417343165772
aF36.45545226711637
aF36.46916505762094
aF36.4828726939094
aF36.49657518178932
aF36.51027252705737
aF36.52396473549935
aF36.53765181289022
aF36.55133376499413
aF36.565010597564445
aF36.578682316343766
aF36.59234892706397
aF36.60601043544625
aF36.61966684720111
aF36.6333181680284
aF36.64696440361739
aF36.66060555964672
aF36.6742416417845
aF36.68787265568828
aF36.701498607005135
aF36.71511950137164
aF36.72873534441391
aF36.742346141747674
aF36.75595189897821
aF36.76955262170047
aF36.78314831549904
aF36.796738985948195
aF36.810324638611924
aF36.823905279043935
aF36.837480912787726
aF36.851051545376556
aF36.864617182333525
aF36.87817782917155
aF36.89173349139343
aF36.90528417449187
aF36.91882988394946
aF36.932370625238775
aF36.945906403822335
aF36.959437225152655
aF36.9729630946723
aF36.98648401781386
aF37.0
aF37.013511046643494
aF37.027017163147235
aF37.04051835490427
aF37.05401462729781
aF37.067505985701274
aF37.080992435478315
aF37.094473981982816
aF37.107950630558946
aF37.12142238654117
aF37.134889255254286
aF37.14835124201342
aF37.16180835212409
aF37.17526059088221
aF37.1887079635741
aF37.20215047547655
aF37.21558813185679
aF37.22902093797257
aF37.242448899072144
aF37.255872020394314
aF37.26929030716845
aF37.282703764614496
aF37.296112397943034
aF37.30951621235526
aF37.322915213043046
aF37.33630940518894
aF37.3496987939662
aF37.36308338453881
aF37.376463182061514
aF37.389838191679836
aF37.403208418530085
aF37.416573867739416
aF37.429934544425805
aF37.44329045369811
aF37.456641600656084
aF37.469987990390386
aF37.48332962798263
aF37.49666651850535
aF37.5099986670221
aF37.52332607858744
aF37.53664875824692
aF37.54996671103717
aF37.5632799419859
aF37.57658845611187
aF37.589892258425
aF37.603191353926334
aF37.61648574760805
aF37.62977544445356
aF37.64306044943742
aF37.656340767525464
aF37.66961640367472
aF37.68288736283355
aF37.69615364994153
aF37.70941526992961
aF37.72267222772003
aF37.73592452822641
aF37.749172176353746
aF37.76241517699841
aF37.77565353504821
aF37.78888725538237
aF37.8021163428716
aF37.815340802378074
aF37.82856063875548
aF37.841775856849004
aF37.8549864614954
aF37.86819245752297
aF37.881393849751625
aF37.89459064299283
aF37.907782842049734
aF37.92097045171708
aF37.93415347678132
aF37.94733192202055
aF37.960505792204614
aF37.97367509209505
aF37.986839826445156
aF38.0
aF38.01315561749642
aF38.02630668366309
aF38.03945320322047
aF38.05259518088089
aF38.06573262134856
aF38.07886552931954
aF38.09199390948182
aF38.1051177665153
aF38.118237105091836
aF38.13135192987524
aF38.144462245521304
aF38.157568056677825
aF38.17066936798463
aF38.18376618407357
aF38.19685850956856
aF38.2099463490856
aF38.22302970723278
aF38.23610858861032
aF38.24918299781056
aF38.262252939417984
aF38.27531841800928
aF38.28837943815329
aF38.301436004411116
aF38.31448812133603
aF38.3275357934736
aF38.34057902536163
aF38.353617821530214
aF38.36665218650175
aF38.379682124790975
aF38.39270764090493
aF38.40572873934304
aF38.41874542459709
aF38.43175770115127
aF38.44476557348217
aF38.45776904605882
aF38.47076812334269
aF38.48376280978771
aF38.49675310984031
aF38.50973902793941
aF38.52272056851645
aF38.535697735995385
aF38.54867053479276
aF38.561638969317684
aF38.57460304397182
aF38.58756276314948
aF38.600518131237564
aF38.61346915261564
aF38.62641583165593
aF38.63935817272331
aF38.65229618017538
aF38.66522985836241
aF38.67815921162743
aF38.691084244306204
aF38.704004960727254
aF38.71692136521188
aF38.72983346207417
aF38.742741255621034
aF38.7556447501522
aF38.768543949960254
aF38.781438859330635
aF38.79432948254165
aF38.80721582386451
aF38.82009788756334
aF38.8329756778952
aF38.84584919911006
aF38.8587184554509
aF38.87158345115362
aF38.88444419044716
aF38.897300677553446
aF38.91015291668744
aF38.92300091205713
aF38.93584466786357
aF38.948684188300895
aF38.961519477556315
aF38.97435053981015
aF38.98717737923585
aF39.0
aF39.01281840626232
aF39.02563260217571
aF39.03844259188627
aF39.05124837953327
aF39.06404996924922
aF39.07684736515984
aF39.08964057138413
aF39.102429592034305
aF39.11521443121589
aF39.1279950930277
aF39.14077158156185
aF39.153543900903784
aF39.16631205513228
aF39.179076048319466
aF39.191835884530846
aF39.20459156782532
aF39.21734310225516
aF39.230090491866065
aF39.242833740697165
aF39.25557285278104
aF39.26830783214372
aF39.28103868280471
aF39.293765408777
aF39.30648801406709
aF39.319206502675
aF39.331920878594275
aF39.344631145812
aF39.35733730830886
aF39.370039370059054
aF39.382737335030434
aF39.395431207184416
aF39.408120990476064
aF39.42080668885405
aF39.433488306260706
aF39.44616584663204
aF39.45883931389772
aF39.4715087119811
aF39.48417404479927
aF39.496835316262995
aF39.50949253027682
aF39.52214569073901
aF39.534794801541594
aF39.54743986657038
aF39.56008088970496
aF39.57271787481876
aF39.585350825778974
aF39.59797974644666
aF39.61060464067672
aF39.6232255123179
aF39.63584236521283
aF39.64845520319802
aF39.66106403010388
aF39.67366884975475
aF39.68626966596886
aF39.698866482558415
aF39.71145930332956
aF39.72404813208241
aF39.736632972611055
aF39.74921382870358
aF39.761790704142086
aF39.774363602702685
aF39.786932528155525
aF39.7994974842648
aF39.81205847478876
aF39.824615503479755
aF39.83716857408418
aF39.84971769034255
aF39.8622628559895
aF39.87480407475377
aF39.88734135035826
aF39.89987468652001
aF39.91240408695021
aF39.92492955535426
aF39.93745109543172
aF39.949968710876355
aF39.96248240537617
aF39.97499218261337
aF39.98749804626441
aF40.0
aF40.01249804748511
aF40.024992192379
aF40.0374824383352
aF40.049968789001575
aF40.06245124802026
aF40.07492981902776
aF40.08740450565489
aF40.099875311526844
aF40.11234224026316
aF40.124805295477756
aF40.13726448077895
aF40.149719799769464
aF40.162171256046406
aF40.17461885320133
aF40.18706259482024
aF40.19950248448356
aF40.2119385257662
aF40.22437072223753
aF40.23679907746142
aF40.24922359499622
aF40.26164427839479
aF40.27406113120453
aF40.28647415696737
aF40.29888335921977
aF40.311288741492746
aF40.32369030731191
aF40.33608806019741
aF40.34848200366403
aF40.36087214122113
aF40.3732584763727
aF40.38564101261734
aF40.39801975344831
aF40.4103947023535
aF40.422765862815474
aF40.43513323831146
aF40.44749683231337
aF40.45985664828782
aF40.47221268969612
aF40.48456495999432
aF40.496913462633174
aF40.50925820105819
aF40.52159917870962
aF40.53393639902249
aF40.54626986542659
aF40.55859958134649
aF40.570925550201586
aF40.58324777540605
aF40.59556626036888
aF40.607881008493905
aF40.620192023179804
aF40.63249930782009
aF40.64480286580315
aF40.65710270051225
aF40.66939881532551
aF40.681691213615984
aF40.69397989875161
aF40.70626487409524
aF40.718546143004666
aF40.7308237088326
aF40.74309757492672
aF40.755367744629666
aF40.76763422127902
aF40.779897008207364
aF40.792156108742276
aF40.80441152620633
aF40.8166632639171
aF40.82891132518721
aF40.84115571332428
aF40.85339643163099
aF40.8656334834051
aF40.87786687193939
aF40.890096600521744
aF40.90232267243512
aF40.91454509095757
aF40.92676385936225
aF40.93897898091744
aF40.95119045888654
aF40.963398296528084
aF40.97560249709576
aF40.98780306383839
aF41.0
aF41.012193308819754
aF41.02438299353203
aF41.036569057366385
aF41.048751503547585
aF41.060930335295616
aF41.0731055558257
aF41.08527716834828
aF41.09744517606904
aF41.10960958218893
aF41.12177038990418
aF41.13392760240627
aF41.14608122288197
aF41.15823125451335
aF41.1703777004778
aF41.182520563948
aF41.19465984809196
aF41.20679555607303
aF41.2189276910499
aF41.23105625617661
aF41.24318125460256
aF41.255302689472536
aF41.2674205639267
aF41.27953488110059
aF41.291645644125154
aF41.30375285612676
aF41.31585652022719
aF41.32795663954365
aF41.340053217188775
aF41.352146256270665
aF41.36423575989287
aF41.376321731154405
aF41.38840417314975
aF41.400483088968905
aF41.41255848169731
aF41.42463035441596
aF41.43669871020132
aF41.44876355212541
aF41.46082488325576
aF41.47288270665544
aF41.48493702538308
aF41.49698784249286
aF41.50903516103452
aF41.52107898405339
aF41.53311931459037
aF41.54515615568198
aF41.557189510360296
aF41.569219381653056
aF41.58124577258358
aF41.593268686170845
aF41.60528812542944
aF41.617304093369626
aF41.6293165929973
aF41.641325627314025
aF41.65333119931706
aF41.66533331199932
aF41.677331968349414
aF41.689327171351664
aF41.701318923986086
aF41.71330722922842
aF41.72529209005013
aF41.737273509418415
aF41.7492514902962
aF41.7612260356422
aF41.773197148410844
aF41.78516483155236
aF41.79712908801273
aF41.80908992073375
aF41.82104733265297
aF41.83300132670378
aF41.84495190581536
aF41.8568990729127
aF41.86884283091664
aF41.88078318274385
aF41.892720131306824
aF41.90465367951393
aF41.916583830269374
aF41.92851058647326
aF41.94043395102154
aF41.95235392680606
aF41.96427051671457
aF41.97618372363071
aF41.98809355043403
aF42.0
aF42.01190307520001
aF42.02380277890139
aF42.035699113967404
aF42.04759208325728
aF42.05948168962618
aF42.07136793592526
aF42.08325082500163
aF42.09513035969837
aF42.1070065428546
aF42.118879377305376
aF42.13074886588179
aF42.14261501141095
aF42.15447781671598
aF42.16633728461603
aF42.17819341792628
aF42.190046219457976
aF42.20189569201838
aF42.21374183841087
aF42.22558466143482
aF42.23742416388575
aF42.24926034855522
aF42.261093218230876
aF42.2729227756965
aF42.28474902373195
aF42.2965719651132
aF42.30839160261236
aF42.320207938997655
aF42.33202097703345
aF42.34383071948026
aF42.35563716909474
aF42.36744032862972
aF42.37924020083418
aF42.391036788453285
aF42.40283009422838
aF42.41462012089699
aF42.42640687119285
aF42.43819034784589
aF42.44997055358225
aF42.46174749112429
aF42.473521163190604
aF42.485291572496
aF42.49705872175156
aF42.50882261366456
aF42.5205832509386
aF42.532340636273474
aF42.5440947723653
aF42.555845661906424
aF42.567593307585526
aF42.579337712087536
aF42.59107887809371
aF42.60281680828159
aF42.61455150532503
aF42.62628297189423
aF42.638011210655684
aF42.649736224272246
aF42.661458015403085
aF42.67317658670374
aF42.68489194082609
aF42.69660408041839
aF42.708313008125245
aF42.720018726587654
aF42.731721238442994
aF42.74342054632502
aF42.7551166528639
aF42.76680956068619
aF42.77849927241488
aF42.790185790669334
aF42.80186911806539
aF42.81354925721529
aF42.82522621072771
aF42.83689998120779
aF42.8485705712571
aF42.86023798347368
aF42.871902220452036
aF42.883563284783136
aF42.89522117905443
aF42.906875905849866
aF42.91852746774987
aF42.930175867331364
aF42.941821107167776
aF42.95346318982906
aF42.96510211788167
aF42.9767378938886
aF42.988370520409354
aF43.0
aF43.01162633521314
aF43.02324952859791
aF43.034869582700026
aF43.04648650006177
aF43.05810028322197
aF43.069710934716056
aF43.08131845707603
aF43.09292285283048
aF43.104524124504614
aF43.116122274620196
aF43.12771730569565
aF43.139309220245984
aF43.15089802078283
aF43.162483709814474
aF43.174066289845804
aF43.18564576337837
aF43.197222132910355
aF43.2087954009366
aF43.22036556994862
aF43.23193264243457
aF43.243496620879306
aF43.255057507764334
aF43.266615305567875
aF43.278170016764804
aF43.289721643826724
aF43.30127018922193
aF43.31281565541543
aF43.32435804486894
aF43.3358973600409
aF43.347433603386484
aF43.3589667773576
aF43.37049688440288
aF43.382023926967726
aF43.393547907494266
aF43.40506882842141
aF43.41658669218482
aF43.42810150121693
aF43.439613257946945
aF43.45112196480086
aF43.46262762420146
aF43.474130238568314
aF43.485629810317796
aF43.497126341863094
aF43.508619835614184
aF43.520110293977886
aF43.53159771935783
aF43.54308211415448
aF43.55456348076513
aF43.56604182158393
aF43.57751713900185
aF43.58898943540674
aF43.60045871318328
aF43.61192497471305
aF43.62338822237447
aF43.634848458542855
aF43.64630568559039
aF43.657759905886145
aF43.669211121796096
aF43.68065933568311
aF43.69210454990696
aF43.70354676682432
aF43.71498598878879
aF43.726422218150894
aF43.73785545725808
aF43.749285708454714
aF43.76071297408213
aF43.77213725647858
aF43.78355855797927
aF43.79497688091638
aF43.80639222761902
aF43.81780460041329
aF43.829214001622255
aF43.840620433565945
aF43.8520238985614
aF43.86342439892262
aF43.87482193696061
aF43.88621651498338
aF43.89760813529594
aF43.9089968002003
aF43.9203825119955
aF43.93176527297759
aF43.94314508543966
aF43.95452195167182
aF43.965895873961216
aF43.977266854592045
aF43.98863489584554
aF44.0
aF44.01136216933077
aF44.02272140611028
aF44.034077712607996
aF44.04543109109048
aF44.05678154382138
aF44.06812907306141
aF44.07947368106838
aF44.090815370097204
aF44.10215414239989
aF44.11349000022555
aF44.12482294582042
aF44.13615298142782
aF44.14748010928823
aF44.15880433163923
aF44.170125650715555
aF44.181444068749045
aF44.19275958796871
aF44.204072210600685
aF44.21538193886829
aF44.22668877499196
aF44.23799272118933
aF44.24929377967517
aF44.26059195266146
aF44.27188724235731
aF44.28317965096906
aF44.294469180700204
aF44.30575583375144
aF44.31703961232068
aF44.328320518603
aF44.339598554790726
aF44.35087372307337
aF44.36214602563767
aF44.37341546466758
aF44.384682042344295
aF44.395945760846224
aF44.40720662234904
aF44.41846462902562
aF44.429719783046124
aF44.44097208657794
aF44.45222154178574
aF44.46346815083142
aF44.474711915874174
aF44.48595283907045
aF44.49719092257398
aF44.50842616853577
aF44.51965857910413
aF44.53088815642464
aF44.54211490264017
aF44.553338819890925
aF44.56455991031439
aF44.57577817604534
aF44.58699361921591
aF44.598206241955516
aF44.609416046390926
aF44.62062303464621
aF44.63182720884279
aF44.64302857109943
aF44.654227123532216
aF44.66542286825459
aF44.67661580737735
aF44.68780594300866
aF44.69899327725402
aF44.710177812216315
aF44.721359549995796
aF44.73253849269008
aF44.74371464239419
aF44.75488800120049
aF44.76605857119878
aF44.77722635447622
aF44.78839135311738
aF44.799553569204235
aF44.81071300481616
aF44.82186966202994
aF44.83302354291979
aF44.844174649557324
aF44.85532298401161
aF44.86646854834911
aF44.87761134463375
aF44.88875137492688
aF44.8998886412873
aF44.91102314577124
aF44.9221548904324
aF44.93328387732194
aF44.94441010848846
aF44.955533585978046
aF44.96665431183423
aF44.97777228809804
aF44.98888751680797
aF45.0
aF45.0111097397076
aF45.02221673796171
aF45.033320996790806
aF45.044422518220834
aF45.05552130427524
aF45.066617356974994
aF45.077710678338576
aF45.088801270381985
aF45.09988913511872
aF45.110974274559844
aF45.12205669071391
aF45.13313638558703
aF45.14421336118285
aF45.155287619502545
aF45.16635916254486
aF45.17742799230607
aF45.18849411078001
aF45.19955751995809
aF45.21061822182926
aF45.221676218380054
aF45.232731511594565
aF45.24378410345447
aF45.254833995939045
aF45.2658811910251
aF45.27692569068709
aF45.28796749689701
aF45.2990066116245
aF45.31004303683677
aF45.32107677449864
aF45.332107826572546
aF45.34313619501854
aF45.35416188179427
aF45.36518488885502
aF45.37620521815371
aF45.387222871640866
aF45.39823785126467
aF45.40925015897091
aF45.42025979670306
aF45.43126676640219
aF45.44227107000705
aF45.45327270945405
aF45.46427168667722
aF45.47526800360829
aF45.48626166217664
aF45.4972526643093
aF45.50824101193101
aF45.51922670696417
aF45.53020975132884
aF45.5411901469428
aF45.552167895721496
aF45.56314299957807
aF45.574115460423364
aF45.58508528016593
aF45.59605246071199
aF45.60701700396552
aF45.617978911828175
aF45.628938186199335
aF45.639894828976104
aF45.65084884205331
aF45.661800227323496
aF45.67274898667694
aF45.68369512200168
aF45.69463863518345
aF45.70557952810576
aF45.71651780264984
aF45.727453460694704
aF45.73838650411709
aF45.749316934791494
aF45.760244754590204
aF45.77116996538323
aF45.78209256903839
aF45.79301256742124
aF45.803929962395145
aF45.81484475582123
aF45.8257569495584
aF45.83666654546336
aF45.8475735453906
aF45.858477951192405
aF45.86937976471886
aF45.880278987817846
aF45.89117562233506
aF45.902069670114
aF45.91296113299599
aF45.92385001282014
aF45.93473631142341
aF45.94562003064057
aF45.95650117230423
aF45.967379738244816
aF45.9782557302906
aF45.98912915026767
aF46.0
aF46.010868281309364
aF46.021733996015406
aF46.03259714593562
aF46.04345773288535
aF46.05431575867782
aF46.06517122512408
aF46.07602413403309
aF46.08687448721165
aF46.09772228646444
aF46.10856753359401
aF46.119410230400824
aF46.130250378683186
aF46.14108798023731
aF46.151923036857305
aF46.16275555033516
aF46.17358552246078
aF46.184412955021955
aF46.195237849804386
aF46.20606020859169
aF46.216880033165374
aF46.22769732530488
aF46.238512086787566
aF46.24932431938871
aF46.26013402488151
aF46.2709412050371
aF46.281745861624536
aF46.292547996410825
aF46.3033476111609
aF46.314144707637645
aF46.32493928760188
aF46.33573135281238
aF46.34652090502587
aF46.357307945997036
aF46.36809247747852
aF46.37887450122092
aF46.389654018972806
aF46.400431032480725
aF46.411205543489174
aF46.42197755374064
aF46.4327470649756
aF46.44351407893249
aF46.45427859734774
aF46.46504062195577
aF46.475800154489
aF46.486557196677836
aF46.49731175025068
aF46.50806381693394
aF46.51881339845203
aF46.52956049652737
aF46.54030511288038
aF46.551047249229526
aF46.561786907291264
aF46.57252408878007
aF46.58325879540846
aF46.593991028886975
aF46.604720790924176
aF46.61544808322666
aF46.62617290749907
aF46.636895265444075
aF46.647615158762406
aF46.65833258915282
aF46.66904755831214
aF46.67976006793523
aF46.69047011971501
aF46.70117771534247
aF46.71188285650665
aF46.72258554489466
aF46.73328578219169
aF46.74398357008097
aF46.75467891024384
aF46.76537180435969
aF46.776062254106
aF46.78675026115834
aF46.79743582719036
aF46.8081189538738
aF46.8187996428785
aF46.82947789587238
aF46.84015371452148
aF46.850827100489916
aF46.861498055439924
aF46.87216658103186
aF46.88283267892417
aF46.89349635077342
aF46.9041575982343
aF46.9148164229596
aF46.92547282660026
aF46.93612681080534
aF46.94677837722201
aF46.95742752749558
aF46.968074263269514
aF46.97871858618538
aF46.98936049788292
aF47.0
aF47.01063709417264
aF47.02127178203499
aF47.031904065219386
aF47.042533945356304
aF47.05316142407437
aF47.06378650300037
aF47.07440918375928
aF47.085029467974216
aF47.095647357266465
aF47.10626285325551
aF47.11687595755899
aF47.12748667179272
aF47.138094997570704
aF47.148700936505136
aF47.15930449020638
aF47.16990566028302
aF47.18050444834179
aF47.19110085598767
aF47.20169488482379
aF47.21228653645151
aF47.22287581247038
aF47.23346271447817
aF47.24404724407086
aF47.25462940284264
aF47.265209192385896
aF47.275786614291256
aF47.286361670147556
aF47.29693436154187
aF47.30750469005948
aF47.31807265728392
aF47.32863826479693
aF47.3392015141785
aF47.34976240700686
aF47.36032094485847
aF47.37087712930804
aF47.38143096192854
aF47.391982444291145
aF47.40253157796533
aF47.41307836451879
aF47.4236228055175
aF47.43416490252569
aF47.44470465710583
aF47.45524207081869
aF47.46577714522327
aF47.47630988187688
aF47.486840282335066
aF47.49736834815167
aF47.50789408087881
aF47.51841748206689
aF47.52893855326458
aF47.53945729601885
aF47.54997371187496
aF47.56048780237646
aF47.57099956906519
aF47.58150901348127
aF47.59201613716318
aF47.60252094164762
aF47.61302342846965
aF47.62352359916263
aF47.634021455258214
aF47.644516998286385
aF47.65501022977542
aF47.66550115125194
aF47.67598976424087
aF47.686476070265456
aF47.69696007084728
aF47.70744176750625
aF47.7179211617606
aF47.7283982551269
aF47.738873049120045
aF47.74934554525329
aF47.75981574503821
aF47.77028364998475
aF47.78074926160116
aF47.791212581394085
aF47.80167361086848
aF47.81213235152768
aF47.82258880487337
aF47.83304297240559
aF47.843494855622744
aF47.853944456021594
aF47.86439177509728
aF47.8748368143433
aF47.885279575251516
aF47.89572005931219
aF47.90615826801394
aF47.916594202843754
aF47.92702786528704
aF47.93745925682754
aF47.94788837894741
aF47.958315233127195
aF47.968739820845826
aF47.97916214358062
aF47.989582202807306
aF48.0
aF48.010415536631214
aF48.02082881417188
aF48.03123983409131
aF48.041648597857254
aF48.05205510693585
aF48.062459362791664
aF48.07286136688766
aF48.08326112068523
aF48.093658625644196
aF48.104053883222775
aF48.11444689487763
aF48.12483766206386
aF48.13522618623496
aF48.14561246884289
aF48.155996511338024
aF48.16637831516918
aF48.176757881783615
aF48.187135212627034
aF48.19751030914356
aF48.2078831727758
aF48.218253804964775
aF48.228622207149975
aF48.23898838076935
aF48.249352327259274
aF48.25971404805462
aF48.27007354458868
aF48.28043081829324
aF48.29078587059855
aF48.30113870293329
aF48.31148931672465
aF48.321837713398274
aF48.33218389437829
aF48.342527861087284
aF48.35286961494633
aF48.36320915737499
aF48.373546489791295
aF48.38388161361178
aF48.394214530251446
aF48.40454524112379
aF48.41487374764082
aF48.425200051213004
aF48.43552415324934
aF48.4458460551573
aF48.45616575834287
aF48.46648326421054
aF48.47679857416329
aF48.48711168960263
aF48.49742261192856
aF48.507731342539614
aF48.518037882832814
aF48.52834223420371
aF48.53864439804639
aF48.54894437575342
aF48.55924216871593
aF48.569537778323564
aF48.579831205964474
aF48.590122453025366
aF48.60041152089147
aF48.61069841094653
aF48.620983124572874
aF48.63126566315131
aF48.641546028061235
aF48.65182422068057
aF48.662100242385755
aF48.67237409455183
aF48.68264577855234
aF48.692915295759406
aF48.703182647543684
aF48.7134478352744
aF48.72371086031933
aF48.73397172404482
aF48.744230427815765
aF48.75448697299562
aF48.76474136094644
aF48.774993593028796
aF48.78524367060187
aF48.79549159502341
aF48.80573736764972
aF48.815980989835694
aF48.82622246293481
aF48.83646178829912
aF48.84669896727925
aF48.85693400122443
aF48.86716689148246
aF48.877397639399746
aF48.88762624632127
aF48.8978527135906
aF48.908077042549934
aF48.91829923454004
aF48.92851929090027
aF48.938737212968626
aF48.948953002081666
aF48.95916665957459
aF48.96937818678118
aF48.979587585033826
aF48.98979485566356
aF49.0
aF49.01020301937138
aF49.02040391510457
aF49.03060268852505
aF49.040799340956916
aF49.05099387372289
aF49.06118628814432
aF49.07137658554119
aF49.08156476723211
aF49.09175083453431
aF49.10193478876367
aF49.1121166312347
aF49.122296363260546
aF49.13247398615299
aF49.14264950122246
aF49.15282290977803
aF49.16299421312742
aF49.17316341257699
aF49.18333050943175
aF49.193495504995376
aF49.20365840057018
aF49.21381919745713
aF49.22397789695587
aF49.23413450036468
aF49.24428900898052
aF49.25444142409901
aF49.26459174701441
aF49.27473997901968
aF49.28488612140643
aF49.29503017546495
aF49.3051721424842
aF49.31531202375181
aF49.3254498205541
aF49.33558553417604
aF49.34571916590131
aF49.35585071701227
aF49.36598018878993
aF49.37610758251404
aF49.38623289946298
aF49.39635614091387
aF49.4064773081425
aF49.416596402423345
aF49.42671342502959
aF49.4368283772331
aF49.44694126030446
aF49.457052075512955
aF49.467160824126545
aF49.47726750741192
aF49.48737212663449
aF49.49747468305833
aF49.50757517794625
aF49.51767361255979
aF49.52776998815917
aF49.53786430600334
aF49.54795656734998
aF49.558046773455466
aF49.56813492557492
aF49.57822102496216
aF49.58830507286975
aF49.59838707054898
aF49.60846701924985
aF49.61854492022111
aF49.628620774710235
aF49.63869458396343
aF49.64876634922564
aF49.658836071740545
aF49.66890375275057
aF49.678969393496885
aF49.68903299521938
aF49.69909455915671
aF49.70915408654627
aF49.71921157862421
aF49.72926703662542
aF49.73932046178355
aF49.749371855331
aF49.759421218498915
aF49.76946855251722
aF49.77951385861457
aF49.78955713801841
aF49.79959839195493
aF49.80963762164909
aF49.8196748283246
aF49.82971001320397
aF49.839743177508446
aF49.84977432245807
aF49.85980344927164
aF49.86983055916673
aF49.879855653359705
aF49.889878733065686
aF49.8998997994986
aF49.90991885387112
aF49.91993589739474
aF49.92995093127971
aF49.93996395673509
aF49.949974974968704
aF49.95998398718719
aF49.969990994595946
aF49.9799959983992
aF49.98999899979995
aF50.0
aF50.00999900019995
aF50.0199960015992
aF50.02999100539596
aF50.039984012787215
aF50.049975024968795
aF50.05996404313531
aF50.06995106848019
aF50.07993610219566
aF50.08991914547278
aF50.0999001995014
aF50.1098792654702
aF50.11985634456667
aF50.12983143797713
aF50.1398045468867
aF50.149775672479336
aF50.15974481593781
aF50.16971197844373
aF50.17967716117751
aF50.18964036531842
aF50.19960159204453
aF50.20956084253277
aF50.21951811795888
aF50.22947341949744
aF50.23942674832188
aF50.24937810560445
aF50.25932749251625
aF50.269274910227224
aF50.27922035990614
aF50.28916384272063
aF50.299105359837164
aF50.309044912421065
aF50.3189825016365
aF50.32891812864648
aF50.33885179461288
aF50.34878350069642
aF50.35871324805669
aF50.368641037852115
aF50.37856687124
aF50.38849074937649
aF50.39841267341661
aF50.40833264451424
aF50.41825066382212
aF50.428166732491874
aF50.438080851673966
aF50.44799302251776
aF50.457903246171455
aF50.46781152378217
aF50.47771785649585
aF50.48762224545735
aF50.49752469181039
aF50.50742519669756
aF50.51732376126036
aF50.52722038663912
aF50.53711507397311
aF50.547007824400445
aF50.556898639058154
aF50.566787519082126
aF50.57667446560717
aF50.586559479766954
aF50.59644256269407
aF50.60632371551998
aF50.61620293937506
aF50.62608023538856
aF50.635955604688654
aF50.6458290484024
aF50.65570056765576
aF50.665570163573605
aF50.67543783727971
aF50.68530358989675
aF50.695167422546305
aF50.70502933634887
aF50.714889332423866
aF50.724747411889595
aF50.73460357586329
aF50.7444578254611
aF50.75431016179808
aF50.76416058598822
aF50.774009099144415
aF50.78385570237849
aF50.79370039680118
aF50.80354318352215
aF50.813384063650005
aF50.82322303829225
aF50.83306010855534
aF50.84289527554464
aF50.85272854036448
aF50.86255990411808
aF50.872389367907616
aF50.882216932834204
aF50.89204259999789
aF50.90186637049765
aF50.91168824543142
aF50.92150822589606
aF50.93132631298737
aF50.941142507800116
aF50.950956811427986
aF50.96076922496363
aF50.97057974949863
aF50.98038838612354
aF50.99019513592785
aF51.0
aF51.0098029794274
aF51.01960407529639
aF51.02940328869229
aF51.03920062069938
aF51.048996072400875
aF51.05878964487897
aF51.068581339214816
aF51.07837115648854
aF51.088159097779204
aF51.09794516416487
aF51.10772935672255
aF51.11751167652823
aF51.12729212465687
aF51.137070702182385
aF51.146847410177685
aF51.15662224971465
aF51.16639522186413
aF51.176166327695945
aF51.18593556827891
aF51.19570294468082
aF51.20546845796843
aF51.21523210920751
aF51.22499389946279
aF51.234753829797995
aF51.24451190127583
aF51.254268114957995
aF51.264022471905186
aF51.273774973177076
aF51.28352561983234
aF51.29327441292864
aF51.30302135352264
aF51.31276644267
aF51.32250968142536
aF51.332251070842396
aF51.34199061197374
aF51.35172830587107
aF51.36146415358503
aF51.37119815616529
aF51.38093031466052
aF51.39066063011839
aF51.40038910358559
aF51.41011573610781
aF51.419840528729765
aF51.42956348249516
aF51.43928459844674
aF51.44900387762624
aF51.45872132107443
aF51.468436929831086
aF51.478150704935004
aF51.487862647424
aF51.49757275833493
aF51.507281038703645
aF51.51698748956503
aF51.526692111953004
aF51.536394906900505
aF51.54609587543949
aF51.55579501860097
aF51.56549233741495
aF51.57518783291051
aF51.58488150611572
aF51.59457335805772
aF51.60426338976267
aF51.61395160225576
aF51.62363799656123
aF51.633322573702344
aF51.64300533470143
aF51.65268628057983
aF51.66236541235796
aF51.67204273105525
aF51.6817182376902
aF51.69139193328034
aF51.70106381884226
aF51.710733895391584
aF51.720402163943
aF51.73006862551025
aF51.73973328110612
aF51.749396131742444
aF51.75905717843013
aF51.76871642217914
aF51.778373863998475
aF51.78802950489621
aF51.79768334587948
aF51.807335387954474
aF51.81698563212646
aF51.82663407939975
aF51.836280730777744
aF51.84592558726288
aF51.85556864985669
aF51.86520991955976
aF51.87484939737175
aF51.884487084291386
aF51.894122981316485
aF51.90375708944392
aF51.91338940966964
aF51.92301994298868
aF51.93264869039514
aF51.94227565288221
aF51.95190083144215
aF51.96152422706632
aF51.97114584074513
aF51.980765673468106
aF51.99038372622383
aF52.0
aF52.009614495783374
aF52.01922721455981
aF52.028838157314254
aF52.03844732503075
aF52.04805471869242
aF52.05766033928148
aF52.06726418777925
aF52.076866265166146
aF52.08646657242167
aF52.09606511052442
aF52.10566188045211
aF52.11525688318153
aF52.124850119688595
aF52.1344415909483
aF52.14403129793476
aF52.15361924162119
aF52.16320542297991
aF52.172789842982326
aF52.182372502598994
aF52.191953402799555
aF52.20153254455275
aF52.21110992882645
aF52.22068555658763
aF52.230259428802384
aF52.23983154643591
aF52.24940191045253
aF52.25897052181568
aF52.26853738148792
aF52.278102490430925
aF52.28766584960549
aF52.29722745997153
aF52.306787322488084
aF52.316345438113316
aF52.32590180780452
aF52.3354564325181
aF52.3450093132096
aF52.354560450833695
aF52.364109846344185
aF52.373657500693994
aF52.38320341483518
aF52.392747589718944
aF52.40229002629561
aF52.41183072551463
aF52.421369688324624
aF52.43090691567332
aF52.44044240850758
aF52.44997616777342
aF52.459508194416
aF52.46903848937962
aF52.478567053607705
aF52.48809388804284
aF52.49761899362675
aF52.507142371300304
aF52.51666402200353
aF52.52618394667559
aF52.53570214625479
aF52.54521862167861
aF52.55473337388365
aF52.5642464038057
aF52.57375771237966
aF52.583267300539625
aF52.592775169218825
aF52.602281319349636
aF52.61178575186362
aF52.62128846769148
aF52.630789467763066
aF52.640288753007425
aF52.64978632435273
aF52.65928218272634
aF52.66877632905477
aF52.67826876426369
aF52.687759489277965
aF52.69724850502159
aF52.706735812417755
aF52.716221412388805
aF52.72570530585627
aF52.73518749374084
aF52.744667976962376
aF52.754146756439916
aF52.76362383309168
aF52.773099207835045
aF52.78257288158659
aF52.79204485526205
aF52.80151512977634
aF52.81098370604357
aF52.820450584977024
aF52.82991576748916
aF52.839379254491625
aF52.848841046895245
aF52.85830114561004
aF52.86775955154521
aF52.87721626560914
aF52.88667128870941
aF52.896124621752776
aF52.905576265645195
aF52.91502622129181
aF52.92447448959697
aF52.933921071464184
aF52.94336596779619
aF52.952809179494906
aF52.96225070746144
aF52.97169055259611
aF52.98112871579842
aF52.99056519796708
aF53.0
aF53.009433122794285
aF53.018864567246254
aF53.028294334251406
aF53.03772242470448
aF53.04714883949938
aF53.056573579529235
aF53.0659966456864
aF53.075418038862395
aF53.08483775994799
aF53.094255809833136
aF53.103672189407014
aF53.113086899558006
aF53.1224999411737
aF53.131911315140925
aF53.14132102234569
aF53.150729063673246
aF53.16013544000805
aF53.16954015223378
aF53.178943201233324
aF53.1883445878888
aF53.19774431308154
aF53.207142377692115
aF53.21653878260028
aF53.225933528685054
aF53.23532661682466
aF53.24471804789655
aF53.25410782277739
aF53.2634959423431
aF53.27288240746881
aF53.28226721902888
aF53.291650377896914
aF53.301031884945715
aF53.31041174104736
aF53.319789947073126
aF53.32916650389353
aF53.33854141237835
aF53.34791467339656
aF53.3572862878164
aF53.36665625650534
aF53.376024580330075
aF53.38539126015655
aF53.39475629684998
aF53.40411969127476
aF53.41348144429457
aF53.422841556772326
aF53.43220002957018
aF53.44155686354955
aF53.45091205957107
aF53.46026561849464
aF53.4696175411794
aF53.47896782848375
aF53.48831648126533
aF53.49766350038102
aF53.50700888668698
aF53.51635264103861
aF53.52569476429054
aF53.53503525729669
aF53.54437412091022
aF53.55371135598354
aF53.563046963368315
aF53.5723809439155
aF53.58171329847526
aF53.59104402789705
aF53.600373133029585
aF53.60970061472084
aF53.61902647381804
aF53.62835071116769
aF53.637673327615545
aF53.646994324006634
aF53.65631370118525
aF53.665631459994955
aF53.67494760127857
aF53.68426212587819
aF53.693575034635195
aF53.70288632839021
aF53.71219600798314
aF53.72150407425317
aF53.73081052803875
aF53.74011537017761
aF53.749418601506754
aF53.75872022286245
aF53.76802023508026
aF53.777318638995006
aF53.786615435440815
aF53.79591062525106
aF53.80520420925842
aF53.81449618829484
aF53.823786563191554
aF53.83307533477908
aF53.842362503887216
aF53.85164807134504
aF53.86093203798092
aF53.87021440462252
aF53.879495172096775
aF53.88877434122992
aF53.898051912847464
aF53.907327887774215
aF53.91660226683428
aF53.925875050851054
aF53.9351462406472
aF53.94441583704471
aF53.95368384086484
aF53.96295025292817
aF53.97221507405454
aF53.98147830506312
aF53.99073994677235
aF54.0
aF54.00925846556311
aF54.01851534427802
aF54.0277706369604
aF54.037024344425184
aF54.04627646748664
aF54.055527006958314
aF54.064775963653084
aF54.0740233383831
aF54.08326913195984
aF54.092513345194085
aF54.101755978895916
aF54.11099703387473
aF54.120236510939236
aF54.12947441089743
aF54.13871073455665
aF54.147945482723536
aF54.15717865620402
aF54.16641025580336
aF54.17564028232615
aF54.18486873657626
aF54.194095619356915
aF54.20332093147061
aF54.2125446737192
aF54.22176684690383
aF54.230987451824994
aF54.24020648928247
aF54.249423960075376
aF54.258639865002145
aF54.26785420486054
aF54.27706698044764
aF54.286278192559855
aF54.29548784199291
aF54.30469592954186
aF54.31390245600108
aF54.323107422164284
aF54.3323108288245
aF54.3415126767741
aF54.35071296680477
aF54.35991169970753
aF54.36910887627275
aF54.378304497290095
aF54.38749856354859
aF54.396691075836586
aF54.405882034941776
aF54.415071441651165
aF54.42425929675111
aF54.433445601027316
aF54.4426303552648
aF54.45181356024793
aF54.46099521676041
aF54.47017532558529
aF54.47935388750494
aF54.48853090330111
aF54.49770637375485
aF54.506880299646575
aF54.516052681756044
aF54.52522352086234
aF54.53439281774392
aF54.543560573178574
aF54.55272678794342
aF54.56189146281496
aF54.57105459856901
aF54.58021619598075
aF54.589376255824725
aF54.59853477887479
aF54.607691765904185
aF54.616847217685496
aF54.62600113499065
aF54.63515351859094
aF54.644304369257
aF54.653453687758834
aF54.662601474865795
aF54.67174773134658
aF54.680892457969264
aF54.69003565550127
aF54.699177324709375
aF54.70831746635972
aF54.71745608121781
aF54.72659317004851
aF54.735728733616035
aF54.74486277268398
aF54.75399528801528
aF54.76312628037227
aF54.772255750516614
aF54.78138369920935
aF54.7905101272109
aF54.79963503528103
aF54.80875842417888
aF54.817880294662984
aF54.8270006474912
aF54.83611948342078
aF54.84523680320835
aF54.85435260760991
aF54.86346689738081
aF54.872579673275794
aF54.881690936048976
aF54.89080068645383
aF54.89990892524322
aF54.909015653169384
aF54.91812087098393
aF54.92722457943783
aF54.93632677928149
aF54.945427471264615
aF54.954526656136345
aF54.96362433464518
aF54.97272050753901
aF54.981815175565096
aF54.99090833947008
aF55.0
aF55.00909015790027
aF55.018178813915675
aF55.02726596879042
aF55.036351623268054
aF55.04543577809154
aF55.054518434003214
aF55.06359959174482
aF55.072679252057455
aF55.08175741568164
aF55.09083408335728
aF55.09990925582364
aF55.10898293381942
aF55.11805511808268
aF55.12712580935088
aF55.136195008360886
aF55.14526271584895
aF55.154328932550705
aF55.163393659201205
aF55.17245689653489
aF55.18151864528558
aF55.190578906186516
aF55.19963767997033
aF55.20869496736904
aF55.21775076911409
aF55.226805085936306
aF55.235857918565905
aF55.24490926773253
aF55.25395913416522
aF55.263007518592396
aF55.27205442174191
aF55.281099844341014
aF55.29014378711634
aF55.299186250793966
aF55.308227236099334
aF55.31726674375732
aF55.326304774492215
aF55.33534132902769
aF55.344376408086845
aF55.35341001239219
aF55.362442142665635
aF55.37147279962851
aF55.380501984001555
aF55.389529696504916
aF55.39855593785816
aF55.40758070878027
aF55.41660400998964
aF55.42562584220407
aF55.4346462061408
aF55.44366510251645
aF55.452682532047085
aF55.46169849544819
aF55.47071299343465
aF55.47972602672079
aF55.48873759602033
aF55.49774770204643
aF55.50675634551167
aF55.51576352712804
aF55.52476924760696
aF55.53377350765928
aF55.54277630799526
aF55.5517776493246
aF55.560777532356404
aF55.569775957799216
aF55.57877292636101
aF55.58776843874919
aF55.59676249567055
aF55.60575509783138
aF55.614746245937326
aF55.62373594069352
aF55.632724182804495
aF55.641710972974224
aF55.65069631190611
aF55.65968020030299
aF55.66866263886712
aF55.67764362830022
aF55.68662316930342
aF55.695601262577284
aF55.70457790882182
aF55.71355310873648
aF55.72252686302013
aF55.731499172371095
aF55.74047003748713
aF55.749439459065414
aF55.758407437802596
aF55.767373974394744
aF55.776339069537364
aF55.78530272392541
aF55.794264938253285
aF55.80322571321482
aF55.812185049503306
aF55.82114294781145
aF55.83009940883144
aF55.839054433254866
aF55.848008021772806
aF55.85696017507576
aF55.86591089385369
aF55.87486017879597
aF55.883808030591474
aF55.89275444992848
aF55.90169943749474
aF55.910642993977454
aF55.91958512006326
aF55.92852581643825
aF55.937465083787984
aF55.94640292279746
aF55.95533933415113
aF55.96427431853289
aF55.97320787662612
aF55.98214000911362
aF55.991070716677676
aF56.0
aF56.00892785976178
aF56.01785429664367
aF56.02677931132576
aF56.0357029044876
aF56.04462507680822
aF56.05354582896607
aF56.06246516163912
aF56.07138307550475
aF56.08029957123981
aF56.089214649520635
aF56.098128311023
aF56.10704055642215
aF56.1159513863928
aF56.124860801609124
aF56.133768802744754
aF56.142675390472796
aF56.15158056546583
aF56.16048432839589
aF56.16938667993447
aF56.178287620752556
aF56.18718715152058
aF56.19608527290847
aF56.20498198558558
aF56.213877290220786
aF56.22277118748239
aF56.231663678038196
aF56.24055476255546
aF56.24944444170093
aF56.25833271614081
aF56.2672195865408
aF56.27610505356603
aF56.28498911788115
aF56.293871780150276
aF56.302753041036986
aF56.31163290120435
aF56.32051136131489
aF56.32938842203065
aF56.3382640840131
aF56.34713834792323
aF56.356011214421486
aF56.36488268416781
aF56.37375275782161
aF56.382621436041795
aF56.39148871948674
aF56.4003546088143
aF56.40921910468182
aF56.418082207746124
aF56.42694391866354
aF56.43580423808985
aF56.444663166680336
aF56.45352070508977
aF56.462376853972415
aF56.471231613982
aF56.480084985771754
aF56.4889369699944
aF56.49778756730214
aF56.50663677834667
aF56.515484603779164
aF56.52433104425032
aF56.53317610041028
aF56.542019772908716
aF56.55086206239477
aF56.55970296951709
aF56.568542494923804
aF56.57738063926254
aF56.586217403180434
aF56.595052787324086
aF56.60388679233962
aF56.61271941887264
aF56.621550667568265
aF56.630380539071076
aF56.639209034025185
aF56.64803615307419
aF56.65686189686118
aF56.66568626602876
aF56.674509261219015
aF56.68333088307355
aF56.69215113223346
aF56.70097000933934
aF56.7097875150313
aF56.71860364994893
aF56.72741841473134
aF56.73623181001713
aF56.74504383644443
aF56.753854494650845
aF56.7626637852735
aF56.77147170894903
aF56.78027826631356
aF56.789083458002736
aF56.79788728465171
aF56.806689746895124
aF56.815490845367165
aF56.824290580701486
aF56.83308895353129
aF56.84188596448925
aF56.85068161420758
aF56.859475903318
aF56.868268832451726
aF56.87706040223949
aF56.88585061331157
aF56.894639466297704
aF56.90342696182718
aF56.91221310052878
aF56.92099788303083
aF56.929781309961136
aF56.938563381947034
aF56.94734409961539
aF56.95612346359257
aF56.96490147450446
aF56.97367813297646
aF56.9824534396335
aF56.991227395100026
aF57.0
aF57.0087712549569
aF57.01754116059373
aF57.02630971753301
aF57.0350769263968
aF57.043842787806646
aF57.05260730238365
aF57.06137047074842
aF57.0701322935211
aF57.07889277132134
aF57.087651904768336
aF57.09640969448079
aF57.105166141076936
aF57.113921245174545
aF57.12267500739089
aF57.1314274283428
aF57.14017850864661
aF57.148928248918196
aF57.15767664977295
aF57.16642371182581
aF57.175169435691224
aF57.18391382198319
aF57.19265687131522
aF57.201398584300364
aF57.21013896155121
aF57.21887800367987
aF57.227615711297986
aF57.23635208501674
aF57.245087125446844
aF57.253820833198546
aF57.262553208881634
aF57.271284253105414
aF57.28001396647874
aF57.28874234961002
aF57.29746940310715
aF57.30619512757761
aF57.3149195236284
aF57.323642591866054
aF57.33236433289665
aF57.3410847473258
aF57.34980383575867
aF57.358521598799946
aF57.367238037053866
aF57.37595315112421
aF57.38466694161429
aF57.39337940912697
aF57.40209055426466
aF57.41080037762929
aF57.41950887982237
aF57.42821606144492
aF57.436921923097515
aF57.445626465380286
aF57.4543296888929
aF57.463031594234565
aF57.47173218200405
aF57.48043145279966
aF57.48912940721924
aF57.4978260458602
aF57.5065213693195
aF57.51521537819362
aF57.52390807307862
aF57.532599454570104
aF57.54128952326321
aF57.54997827975264
aF57.55866572463264
aF57.56735185849702
aF57.57603668193913
aF57.584720195551874
aF57.59340239992772
aF57.60208329565867
aF57.61076288333631
aF57.619441163551734
aF57.62811813689564
aF57.63679380395825
aF57.645468165329355
aF57.654141221598294
aF57.66281297335398
aF57.67148342118486
aF57.68015256567895
aF57.688820407423826
aF57.697486947006624
aF57.706152185014034
aF57.7148161220323
aF57.723478758647246
aF57.73214009544424
aF57.7408001330082
aF57.74945887192364
aF57.758116312774604
aF57.766772456144714
aF57.77542730261716
aF57.784080852774665
aF57.79273310719956
aF57.8013840664737
aF57.810033731178535
aF57.81868210189506
aF57.82732917920384
aF57.83597496368502
aF57.844619455918284
aF57.85326265648291
aF57.86190456595773
aF57.87054518492115
aF57.879184513951124
aF57.88782255362521
aF57.89645930452051
aF57.905094767213704
aF57.91372894228103
aF57.92236183029832
aF57.93099343184095
aF57.9396237474839
aF57.94825277780168
aF57.956880523368405
aF57.96550698475775
aF57.97413216254298
aF57.982756057296896
aF57.99137866959192
aF58.0
aF58.008620049092706
aF58.01723881744115
aF58.02585630561603
aF58.034472514187634
aF58.0430874437258
aF58.05170109479997
aF58.06031346797914
aF58.0689245638319
aF58.077534382926416
aF58.08614292583042
aF58.09475019311125
aF58.1033561853358
aF58.111960903070546
aF58.12056434688156
aF58.12916651733448
aF58.137767414994535
aF58.146367040426526
aF58.154965394194846
aF58.16356247686347
aF58.172158288995945
aF58.180752831155424
aF58.18934610390462
aF58.19793810780585
aF58.20652884342099
aF58.215118311311535
aF58.22370651203855
aF58.23229344616267
aF58.240879114244144
aF58.249463516842795
aF58.25804665451803
aF58.26662852782886
aF58.27520913733386
aF58.283788483591216
aF58.29236656715869
aF58.30094338859364
aF58.309518948453004
aF58.31809324729333
aF58.32666628567074
aF58.33523806414096
aF58.34380858325929
aF58.35237784358063
aF58.360945845659494
aF58.36951259004995
aF58.378078077305695
aF58.38664230798
aF58.39520528262573
aF58.40376700179535
aF58.412327466040935
aF58.42088667591412
aF58.42944463196617
aF58.43800133474792
aF58.44655678480983
aF58.45511098270193
aF58.463663928973865
aF58.47221562417487
aF58.48076606885378
aF58.489315263559035
aF58.497863208838666
aF58.5064099052403
aF58.51495535331117
aF58.52349955359813
aF58.532042506647585
aF58.540584213005594
aF58.54912467321779
aF58.557663887829406
aF58.56620185738529
aF58.57473858242988
aF58.58327406350724
aF58.59180830116101
aF58.60034129593445
aF58.60887304837041
aF58.61740355901138
aF58.625932828399414
aF58.63446085707619
aF58.642987645583
aF58.65151319446072
aF58.66003750424986
aF58.66856057549052
aF58.677082408722406
aF58.68560300448484
aF58.69412236331676
aF58.70264048575669
aF58.71115737234278
aF58.71967302361279
aF58.728187440104094
aF58.73670062235365
aF58.74521257089806
aF58.75372328627353
aF58.762232769015846
aF58.770741019660456
aF58.77924803874238
aF58.787753826796276
aF58.7962583843564
aF58.80476171195663
aF58.81326381013045
aF58.82176467941097
aF58.83026432033091
aF58.8387627334226
aF58.84725991921799
aF58.855755878248644
aF58.86425061104575
aF58.872744118140105
aF58.881236400062114
aF58.88972745734183
aF58.89821729050889
aF58.90670590009256
aF58.915193286621744
aF58.92367945062494
aF58.93216439263028
aF58.9406481131655
aF58.94913061275798
aF58.957611891934704
aF58.966091951222275
aF58.974570791146924
aF58.98304841223451
aF58.9915248150105
aF59.0
aF59.00847396772772
aF59.016946718718
aF59.02541825349483
aF59.033888572581766
aF59.04235767650204
aF59.0508255657785
aF59.0592922409336
aF59.06775770248944
aF59.07622195096772
aF59.08468498688979
aF59.09314681077663
aF59.10160742314882
aF59.1100668245266
aF59.11852501542981
aF59.12698199637793
aF59.135437767890075
aF59.14389233048498
aF59.15234568468101
aF59.16079783099616
aF59.16924876994806
aF59.177698502053964
aF59.18614702783076
aF59.19459434779497
aF59.20304046246274
aF59.21148537234985
aF59.21992907797171
aF59.22837157984339
aF59.23681287847955
aF59.2452529743945
aF59.253691868102194
aF59.262129560116215
aF59.270566050949775
aF59.27900134111572
aF59.28743543112655
aF59.295868321494375
aF59.30430001273095
aF59.312730505347666
aF59.321159799855565
aF59.329587896765304
aF59.33801479658719
aF59.34644049983116
aF59.3548650070068
aF59.36328831862332
aF59.371710435189584
aF59.38013135721409
aF59.388551085204966
aF59.39696961966999
aF59.405386961116584
aF59.413803110051795
aF59.42221806698232
aF59.430631832414505
aF59.43904440685432
aF59.447455790807396
aF59.455865984778995
aF59.464274989274024
aF59.472682804797024
aF59.481089431852205
aF59.48949487094339
aF59.49789912257407
aF59.50630218724736
aF59.51470406546604
aF59.52310475773252
aF59.531504264548865
aF59.53990258641679
aF59.54829972383762
aF59.55669567731239
aF59.565090447341724
aF59.57348403442592
aF59.58187643906493
aF59.590267661758325
aF59.59865770300536
aF59.60704656330491
aF59.61543424315552
aF59.62382074305537
aF59.632206063502295
aF59.64059020499378
aF59.648973168026956
aF59.65735495309862
aF59.665735560705194
aF59.67411499134277
aF59.682493245507096
aF59.69087032369355
aF59.6992462263972
aF59.70762095411272
aF59.715994507334464
aF59.724366886556446
aF59.732738092272314
aF59.74110812497538
aF59.74947698515862
aF59.75784467331465
aF59.76621118993574
aF59.77457653551382
aF59.782940710540494
aF59.79130371550699
aF59.799665550904216
aF59.80802621722272
aF59.81638571495272
aF59.824744044584094
aF59.833101206606365
aF59.841457201508724
aF59.84981202978001
aF59.85816569190874
aF59.86651818838306
aF59.87486951969081
aF59.88321968631947
aF59.89156868875618
aF59.89991652748775
aF59.90826320300064
aF59.91660871578097
aF59.924953066314536
aF59.93329625508679
aF59.941638282582836
aF59.94997914928745
aF59.95831885568507
aF59.9666574022598
aF59.9749947894954
aF59.983331017875294
aF59.99166608788257
aF60.0
aF60.00833275470999
aF60.01666435249463
aF60.024994793835674
aF60.03332407921454
aF60.0416522091123
aF60.049979184009715
aF60.05830500438719
aF60.06662967072483
aF60.07495318350236
aF60.08327554319921
aF60.091596750294464
aF60.09991680526688
aF60.108235708594876
aF60.11655346075655
aF60.124870062229654
aF60.13318551349163
aF60.14149981501958
aF60.149812967290266
aF60.15812497078013
aF60.166435825965294
aF60.174745533321534
aF60.18305409332431
aF60.19136150644875
aF60.199667773169644
aF60.207972893961475
aF60.21627686929839
aF60.22457969965419
aF60.23288138550239
aF60.241181927316134
aF60.249481325568276
aF60.25777958073132
aF60.266076693277455
aF60.27437266367855
aF60.28266749240614
aF60.29096117993144
aF60.29925372672534
aF60.30754513325841
aF60.315835400000886
aF60.32412452742269
aF60.332412515993425
aF60.340699366182356
aF60.34898507845845
aF60.35726965329032
aF60.36555309114628
aF60.37383539249432
aF60.382116557802114
aF60.390396587537
aF60.398675482166
aF60.40695324215582
aF60.41522986797286
aF60.423505360083176
aF60.43177971895251
aF60.440052945046304
aF60.44832503882965
aF60.45659600076736
aF60.4648658313239
aF60.473134530963414
aF60.481402100149765
aF60.489668539346454
aF60.4979338490167
aF60.50619802962338
aF60.51446108162907
aF60.52272300549604
aF60.530983801686226
aF60.53924347066124
aF60.54750201288241
aF60.55575942881073
aF60.56401571890688
aF60.572270883631234
aF60.58052492344384
aF60.58877783880444
aF60.597029630172464
aF60.60528029800704
aF60.61352984276695
aF60.6217782649107
aF60.63002556489647
aF60.63827174318213
aF60.64651680022522
aF60.654760736483
aF60.663003552412405
aF60.67124524847005
aF60.67948582511226
aF60.687725282795036
aF60.69596362197407
aF60.70420084310476
aF60.71243694664216
aF60.72067193304106
aF60.728905802755904
aF60.73713855624086
aF60.74537019394976
aF60.753600716336145
aF60.76183012385325
aF60.77005841695399
aF60.778285596090974
aF60.78651166171653
aF60.794736614282655
aF60.802960454241045
aF60.81118318204309
aF60.81940479813988
aF60.8276253029822
aF60.83584469702052
aF60.844062980705026
aF60.852280154485584
aF60.860496218811754
aF60.868711174132805
aF60.876925020897694
aF60.88513775955508
aF60.89334939055332
aF60.90155991434045
aF60.909769331364245
aF60.91797764207213
aF60.92618484691127
aF60.93439094632849
aF60.94259594077036
aF60.95079983068311
aF60.959002616512684
aF60.96720429870473
aF60.975404877704584
aF60.983604353957304
aF60.991802727907626
aF61.0
aF61.00819617067857
aF61.0163912403872
aF61.02458520956943
aF61.032778078668514
aF61.04096984812741
aF61.04916051838878
aF61.05735008989499
aF61.065538563088104
aF61.07372593840988
aF61.08191221630181
aF61.09009739720506
aF61.09828148156051
aF61.106464469808756
aF61.11464636239009
aF61.1228271597445
aF61.1310068623117
aF61.13918547053109
aF61.14736298484179
aF61.155539405682624
aF61.163714733492114
aF61.171888968708494
aF61.180062111769715
aF61.18823416311342
aF61.196405123176966
aF61.204574992397426
aF61.212743771211564
aF61.220911460055866
aF61.22907805936653
aF61.237243569579455
aF61.24540799113024
aF61.25357132445422
aF61.26173356998641
aF61.26989472816156
aF61.27805479941412
aF61.28621378417825
aF61.29437168288782
aF61.30252849597641
aF61.310684223877324
aF61.318838867023565
aF61.326992425847855
aF61.335144900782616
aF61.34329629226001
aF61.35144660071187
aF61.35959582656978
aF61.36774397026503
aF61.37589103222861
aF61.38403701289123
aF61.39218191268331
aF61.40032573203501
aF61.40846847137616
aF61.41661013113635
aF61.424750711744856
aF61.43289021363068
aF61.44102863722254
aF61.44916598294886
aF61.45730225123781
aF61.465437442517235
aF61.47357155721473
aF61.48170459575759
aF61.48983655857283
aF61.497967446087195
aF61.506097258727124
aF61.514225996918796
aF61.5223536610881
aF61.53048025166064
aF61.538605769061746
aF61.54673021371647
aF61.554853586049575
aF61.56297588648554
aF61.57109711544857
aF61.57921727336261
aF61.587336360651285
aF61.59545437773797
aF61.603571325045756
aF61.61168720299745
aF61.61980201201558
aF61.62791575252241
aF61.63602842493991
aF61.644140029689765
aF61.652250567193406
aF61.66036003787198
aF61.66846844214635
aF61.6765757804371
aF61.68468205316454
aF61.69278726074872
aF61.7008914036094
aF61.70899448216605
aF61.71709649683789
aF61.72519744804386
aF61.73329733620261
aF61.741396161732524
aF61.74949392505172
aF61.75759062657804
aF61.765686266729034
aF61.773780845922005
aF61.78187436457395
aF61.78996682310163
aF61.7980582219215
aF61.806148561449774
aF61.814237842102365
aF61.82232606429493
aF61.83041322844284
aF61.83849933496123
aF61.84658438426491
aF61.85466837676846
aF61.862751312886175
aF61.87083319303208
aF61.87891401761993
aF61.886993787063204
aF61.89507250177513
aF61.90315016216864
aF61.91122676865643
aF61.91930232165088
aF61.927376821564145
aF61.93545026880809
aF61.94352266379432
aF61.95159400693416
aF61.95966429863868
aF61.96773353931867
aF61.97580172938467
aF61.98386886924694
aF61.99193495931547
aF62.0
aF62.00806399170998
aF62.01612693485461
aF62.02418882984283
aF62.03224967708329
aF62.0403094769844
aF62.048368229954285
aF62.056425936400814
aF62.0644825967316
aF62.07253821135398
aF62.080592780675026
aF62.08864630510155
aF62.0966987850401
aF62.10475022089695
aF62.112800613078136
aF62.120849961989414
aF62.12889826803627
aF62.13694553162394
aF62.14499175315739
aF62.153036933041335
aF62.161081071680215
aF62.16912416947821
aF62.177166226839255
aF62.185207244167
aF62.19324722186485
aF62.20128616033595
aF62.20932405998316
aF62.21736092120912
aF62.22539674441618
aF62.23343153000644
aF62.24146527838174
aF62.24949798994366
aF62.25752966509352
aF62.26556030423239
aF62.27358990776106
aF62.281618476080084
aF62.289646009589745
aF62.297672508690084
aF62.30569797378086
aF62.313722405261586
aF62.321745803531535
aF62.32976816898969
aF62.3377895020348
aF62.34580980306536
aF62.353829072479584
aF62.36184731067546
aF62.369864518050704
aF62.37788069500277
aF62.385895841928885
aF62.39390995922599
aF62.40192304729078
aF62.4099351065197
aF62.41794613730894
aF62.42595614005443
aF62.433965115151864
aF62.44197306299666
aF62.44997998398398
aF62.457985878508765
aF62.465990746965666
aF62.473994589749104
aF62.48199740725323
aF62.489999199871974
aF62.49799996799898
aF62.505999712027645
aF62.51399843235114
aF62.52199612936234
aF62.52999280345393
aF62.53798845501828
aF62.545983084447556
aF62.55397669213365
aF62.56196927846821
aF62.56996084384263
aF62.57795138864806
aF62.5859409132754
aF62.5939294181153
aF62.601916903558156
aF62.609903369994115
aF62.617888817813075
aF62.625873247404705
aF62.63385665915839
aF62.6418390534633
aF62.64982043070834
aF62.65780079128216
aF62.66578013557319
aF62.67375846396959
aF62.68173577685928
aF62.68971207462992
aF62.69768735766894
aF62.70566162636353
aF62.71363488110062
aF62.72160712226688
aF62.72957835024878
aF62.73754856543249
aF62.74551776820397
aF62.75348595894893
aF62.76145313805282
aF62.76941930590086
aF62.77738446287803
aF62.78534860936905
aF62.7933117457584
aF62.80127387243033
aF62.80923498976882
aF62.81719509815764
aF62.82515419798029
aF62.83311228962003
aF62.8410693734599
aF62.849025449882674
aF62.85698051927089
aF62.864934582006846
aF62.8728876384726
aF62.88083968904996
aF62.8887907341205
aF62.89674077406555
aF62.90468980926621
aF62.91263784010332
aF62.92058486695749
aF62.928530890209096
aF62.93647591023825
aF62.94441992742486
aF62.95236294214857
aF62.960304954788775
aF62.96824596572466
aF62.976185975335156
aF62.984124983998946
aF62.99206299209449
aF63.0
aF63.00793600809346
aF63.0158710167526
aF63.02380502635492
aF63.0317380372777
aF63.03967004989794
aF63.047601064592456
aF63.05553108173778
aF63.06346010171025
aF63.071388124885914
aF63.079315151640635
aF63.08724118235002
aF63.095166217389426
aF63.103090257134
aF63.111013301958636
aF63.118935352238
aF63.12685640834652
aF63.13477647065839
aF63.14269553954757
aF63.150613615387776
aF63.15853069855251
aF63.166446789415026
aF63.17436188834834
aF63.182275995725256
aF63.190189111918315
aF63.198101237299845
aF63.20601237224193
aF63.21392251711643
aF63.221831672294975
aF63.229739838148944
aF63.23764701504951
aF63.245553203367585
aF63.25345840347388
aF63.26136261573884
aF63.26926584053272
aF63.2771680782255
aF63.28506932918696
aF63.29296959378664
aF63.30086887239384
aF63.30876716537765
aF63.31666447310692
aF63.324560795950255
aF63.33245613427605
aF63.340350488452465
aF63.34824385884742
aF63.35613624582863
aF63.36402764976355
aF63.37191807101944
aF63.3798075099633
aF63.387695966961914
aF63.39558344238185
aF63.40346993658943
aF63.41135544995076
aF63.419239982831705
aF63.42712353559792
aF63.43500610861482
aF63.4428877022476
aF63.45076831686122
aF63.45864795282043
aF63.46652661048972
aF63.474404290233394
aF63.48228099241551
aF63.490156717399906
aF63.49803146555018
aF63.50590523722971
aF63.51377803280167
aF63.52164985262898
aF63.52952069707436
aF63.53739056650029
aF63.54525946126902
aF63.55312738174259
aF63.56099432828282
aF63.56886030125127
aF63.57672530100933
aF63.58458932791813
aF63.592452382338585
aF63.60031446463138
aF63.608175575157006
aF63.61603571427569
aF63.623894882347464
aF63.631753079732135
aF63.63961030678928
aF63.647466563878254
aF63.655321851358195
aF63.66317616958802
aF63.671029518926424
aF63.67888189973188
aF63.686733312362634
aF63.694583757176716
aF63.702433234531945
aF63.7102817447859
aF63.71812928829596
aF63.72597586541927
aF63.733821476512766
aF63.74166612193315
aF63.74950980203691
aF63.75735251718032
aF63.76519426771944
aF63.773035054010094
aF63.7808748764079
aF63.788713735268246
aF63.796551630946325
aF63.80438856379708
aF63.812224534175265
aF63.8200595424354
aF63.82789358893179
aF63.835726674018524
aF63.84355879804947
aF63.85138996137829
aF63.85922016435841
aF63.86704940734306
aF63.874877690685246
aF63.88270501473775
aF63.89053137985315
aF63.89835678638379
aF63.90618123468183
aF63.914004725099176
aF63.92182725798755
aF63.92964883369844
aF63.93746945258312
aF63.94528911499267
aF63.953107821277925
aF63.96092557178953
aF63.968742366877905
aF63.97655820689325
aF63.984373092185564
aF63.99218702310463
aF64.0
aF64.00781202322104
aF64.01562309311689
aF64.02343321003646
aF64.03124237432849
aF64.03905058634146
aF64.04685784642366
aF64.05466415492317
aF64.06246951218786
aF64.07027391856539
aF64.07807737440318
aF64.08587988004847
aF64.09368143584827
aF64.10148204214939
aF64.10928169929842
aF64.11708040764177
aF64.1248781675256
aF64.13267497929586
aF64.1404708432983
aF64.1482657598785
aF64.15605972938177
aF64.16385275215322
aF64.17164482853778
aF64.17943595888016
aF64.18722614352485
aF64.19501538281614
aF64.20280367709809
aF64.21059102671458
aF64.21837743200929
aF64.22616289332565
aF64.2339474110069
aF64.24173098539609
aF64.24951361683604
aF64.25729530566937
aF64.26507605223851
aF64.27285585688566
aF64.28063471995279
aF64.28841264178172
aF64.29618962271404
aF64.3039656630911
aF64.31174076325411
aF64.319514923544
aF64.32728814430156
aF64.33506042586733
aF64.34283176858165
aF64.35060217278468
aF64.35837163881635
aF64.36614016701638
aF64.37390775772433
aF64.38167441127949
aF64.389440128021
aF64.39720490828775
aF64.40496875241847
aF64.41273166075166
aF64.42049363362563
aF64.42825467137845
aF64.43601477434805
aF64.4437739428721
aF64.45153217728807
aF64.45928947793328
aF64.4670458451448
aF64.47480127925948
aF64.48255578061404
aF64.49030934954492
aF64.4980619863884
aF64.50581369148055
aF64.51356446515724
aF64.52131430775415
aF64.52906321960671
aF64.53681120105021
aF64.5445582524197
aF64.55230437405004
aF64.5600495662759
aF64.56779382943171
aF64.57553716385176
aF64.5832795698701
aF64.59102104782058
aF64.59876159803684
aF64.60650122085238
aF64.61423991660043
aF64.62197768561404
aF64.6297145282261
aF64.63745044476924
aF64.64518543557594
aF64.65291950097846
aF64.66065264130884
aF64.66838485689897
aF64.67611614808051
aF64.68384651518491
aF64.69157595854347
aF64.69930447848725
aF64.70703207534712
aF64.71475874945375
aF64.72248450113763
aF64.73020933072904
aF64.73793323855806
aF64.74565622495459
aF64.7533782902483
aF64.76109943476871
aF64.7688196588451
aF64.77653896280658
aF64.78425734698207
aF64.79197481170026
aF64.79969135728966
aF64.8074069840786
aF64.81512169239521
aF64.82283548256741
aF64.83054835492293
aF64.8382603097893
aF64.8459713474939
aF64.85368146836385
aF64.8613906727261
aF64.86909896090742
aF64.87680633323437
aF64.88451279003334
aF64.89221833163049
aF64.89992295835181
aF64.90762667052309
aF64.91532946846992
aF64.92303135251773
aF64.9307323229917
aF64.93843238021688
aF64.94613152451807
aF64.95382975621992
aF64.96152707564686
aF64.96922348312314
aF64.97691897897283
aF64.98461356351979
aF64.99230723708769
aF65.0
aF65.00769185258002
aF65.01538279515087
aF65.02307282803544
aF65.03076195155643
aF65.0384501660364
aF65.04613747179766
aF65.05382386916237
aF65.06150935845248
aF65.06919393998976
aF65.07687761409578
aF65.08456038109192
aF65.09224224129939
aF65.09992319503918
aF65.10760324263211
aF65.11528238439882
aF65.12296062065974
aF65.13063795173512
aF65.13831437794502
aF65.14598989960932
aF65.1536645170477
aF65.16133823057964
aF65.16901104052447
aF65.1766829472013
aF65.18435395092905
aF65.19202405202648
aF65.19969325081216
aF65.20736154760442
aF65.21502894272147
aF65.22269543648132
aF65.23036102920173
aF65.23802572120036
aF65.24568951279464
aF65.25335240430181
aF65.26101439603893
aF65.26867548832288
aF65.27633568147036
aF65.28399497579785
aF65.2916533716217
aF65.29931086925804
aF65.30696746902278
aF65.31462317123173
aF65.32227797620043
aF65.3299318842443
aF65.33758489567853
aF65.34523701081817
aF65.35288822997802
aF65.36053855347276
aF65.36818798161687
aF65.37583651472461
aF65.3834841531101
aF65.39113089708727
aF65.39877674696982
aF65.40642170307133
aF65.41406576570516
aF65.4217089351845
aF65.42935121182236
aF65.43699259593154
aF65.4446330878247
aF65.45227268781429
aF65.45991139621256
aF65.46754921333164
aF65.47518613948341
aF65.4828221749796
aF65.49045732013177
aF65.49809157525127
aF65.50572494064927
aF65.5133574166368
aF65.52098900352466
aF65.5286197016235
aF65.53624951124378
aF65.54387843269576
aF65.55150646628954
aF65.55913361233506
aF65.56675987114203
aF65.57438524302
aF65.58200972827838
aF65.58963332722634
aF65.5972560401729
aF65.60487786742691
aF65.612498809297
aF65.62011886609167
aF65.62773803811922
aF65.63535632568775
aF65.64297372910524
aF65.6505902486794
aF65.65820588471787
aF65.66582063752801
aF65.67343450741707
aF65.68104749469211
aF65.68865959965997
aF65.69627082262737
aF65.70388116390082
aF65.71149062378664
aF65.71909920259102
aF65.72670690061993
aF65.73431371817918
aF65.7419196555744
aF65.74952471311104
aF65.75712889109438
aF65.76473218982953
aF65.7723346096214
aF65.77993615077473
aF65.7875368135941
aF65.79513659838392
aF65.80273550544841
aF65.81033353509159
aF65.81793068761733
aF65.82552696332935
aF65.83312236253116
aF65.84071688552609
aF65.84831053261732
aF65.85590330410783
aF65.86349520030045
aF65.87108622149782
aF65.87867636800242
aF65.88626564011653
aF65.89385403814228
aF65.90144156238162
aF65.90902821313632
aF65.91661399070799
aF65.92419889539804
aF65.93178292750773
aF65.93936608733814
aF65.94694837519019
aF65.95452979136459
aF65.96211033616193
aF65.96969000988257
aF65.97726881282674
aF65.98484674529449
aF65.99242380758567
aF66.0
aF66.007575322837
aF66.01514977639603
aF66.02272336097626
aF66.03029607687671
aF66.03786792439622
aF66.04543890383347
aF66.05300901548695
aF66.06057825965497
aF66.06814663663572
aF66.07571414672717
aF66.08328079022712
aF66.09084656743322
aF66.09841147864296
aF66.10597552415364
aF66.11353870426238
aF66.12110101926616
aF66.12866246946176
aF66.1362230551458
aF66.14378277661477
aF66.15134163416491
aF66.15889962809237
aF66.16645675869307
aF66.17401302626281
aF66.18156843109719
aF66.18912297349165
aF66.19667665374146
aF66.20422947214173
aF66.2117814289874
aF66.21933252457322
aF66.2268827591938
aF66.23443213314356
aF66.24198064671678
aF66.24952830020754
aF66.25707509390978
aF66.26462102811726
aF66.27216610312357
aF66.27971031922213
aF66.2872536767062
aF66.29479617586888
aF66.3023378170031
aF66.30987860040162
aF66.31741852635702
aF66.32495759516172
aF66.332495807108
aF66.34003316248794
aF66.34756966159348
aF66.35510530471637
aF66.36264009214823
aF66.37017402418047
aF66.37770710110436
aF66.385239323211
aF66.39277069079132
aF66.40030120413611
aF66.40783086353596
aF66.41535966928132
aF66.42288762166245
aF66.4304147209695
aF66.43794096749237
aF66.44546636152086
aF66.4529909033446
aF66.46051459325304
aF66.46803743153546
aF66.47555941848101
aF66.48308055437865
aF66.49060083951716
aF66.4981202741852
aF66.50563885867122
aF66.51315659326356
aF66.52067347825036
aF66.52818951391959
aF66.53570470055908
aF66.5432190384565
aF66.55073252789934
aF66.55824516917495
aF66.56575696257048
aF66.57326790837296
aF66.58077800686922
aF66.58828725834597
aF66.59579566308972
aF66.60330322138685
aF66.61080993352356
aF66.61831579978588
aF66.6258208204597
aF66.63332499583073
aF66.64082832618455
aF66.64833081180653
aF66.65583245298194
aF66.66333324999583
aF66.67083320313314
aF66.6783323126786
aF66.68583057891684
aF66.69332800213226
aF66.70082458260917
aF66.70832032063167
aF66.71581521648372
aF66.7233092704491
aF66.73080248281148
aF66.73829485385434
aF66.74578638386096
aF66.75327707311455
aF66.76076692189807
aF66.76825593049439
aF66.7757440991862
aF66.783231428256
aF66.79071791798619
aF66.79820356865893
aF66.80568838055633
aF66.81317235396027
aF66.82065548915246
aF66.82813778641449
aF66.83561924602779
aF66.84309986827361
aF66.85057965343307
aF66.85805860178712
aF66.86553671361654
aF66.87301398920195
aF66.88049042882386
aF66.88796603276258
aF66.89544080129826
aF66.90291473471092
aF66.91038783328041
aF66.91786009728644
aF66.92533152700851
aF66.93280212272605
aF66.94027188471824
aF66.94774081326419
aF66.9552089086428
aF66.96267617113283
aF66.97014260101288
aF66.9776081985614
aF66.9850729640567
aF66.9925368977769
aF67.0
aF67.00746227100382
aF67.01492371106603
aF67.02238432046416
aF67.02984409947557
aF67.03730304837748
aF67.04476116744694
aF67.05221845696084
aF67.05967491719595
aF67.06713054842886
aF67.07458535093602
aF67.08203932499369
aF67.08949247087803
aF67.09694478886502
aF67.10439627923047
aF67.11184694225007
aF67.11929677819934
aF67.12674578735364
aF67.1341939699882
aF67.14164132637808
aF67.14908785679818
aF67.15653356152326
aF67.16397844082793
aF67.17142249498666
aF67.17886572427373
aF67.1863081289633
aF67.19374970932937
aF67.20119046564577
aF67.20863039818622
aF67.21606950722423
aF67.22350779303324
aF67.23094525588644
aF67.23838189605696
aF67.24581771381771
aF67.2532527094415
aF67.26068688320095
aF67.26812023536856
aF67.27555276621665
aF67.28298447601742
aF67.29041536504289
aF67.29784543356496
aF67.30527468185537
aF67.31270311018568
aF67.32013071882734
aF67.32755750805164
aF67.3349834781297
aF67.34240862933252
aF67.34983296193094
aF67.35725647619564
aF67.36467917239716
aF67.3721010508059
aF67.37952211169207
aF67.38694235532579
aF67.39436178197698
aF67.40178039191547
aF67.40919818541087
aF67.4166151627327
aF67.42403132415029
aF67.43144666993287
aF67.43886120034946
aF67.446274915669
aF67.45368781616021
aF67.46109990209172
aF67.468511173732
aF67.47592163134935
aF67.48333127521195
aF67.49074010558782
aF67.49814812274482
aF67.50555532695068
aF67.512961718473
aF67.52036729757918
aF67.52777206453653
aF67.53517601961218
aF67.54257916307313
aF67.54998149518622
aF67.55738301621814
aF67.56478372643548
aF67.5721836261046
aF67.57958271549181
aF67.58698099486321
aF67.59437846448475
aF67.60177512462228
aF67.60917097554147
aF67.61656601750786
aF67.62396025078685
aF67.63135367564367
aF67.63874629234341
aF67.64613810115105
aF67.65352910233139
aF67.66091929614909
aF67.66830868286867
aF67.67569726275453
aF67.68308503607086
aF67.6904720030818
aF67.69785816405124
aF67.70524351924303
aF67.7126280689208
aF67.72001181334805
aF67.72739475278819
aF67.7347768875044
aF67.7421582177598
aF67.74953874381728
aF67.75691846593969
aF67.76429738438966
aF67.7716754994297
aF67.77905281132217
aF67.7864293203293
aF67.79380502671317
aF67.80117993073571
aF67.80855403265875
aF67.8159273327439
aF67.82329983125268
aF67.83067152844649
aF67.83804242458652
aF67.84541251993387
aF67.85278181474949
aF67.86015030929418
aF67.86751800382861
aF67.87488489861327
aF67.88225099390856
aF67.88961628997471
aF67.89698078707183
aF67.90434448545984
aF67.91170738539859
aF67.91906948714772
aF67.92643079096678
aF67.93379129711516
aF67.94115100585212
aF67.94850991743675
aF67.95586803212802
aF67.96322535018479
aF67.97058187186572
aF67.97793759742936
aF67.98529252713413
aF67.9926466612383
aF68.0
aF68.00735254367721
aF68.01470429252781
aF68.02205524680947
aF68.0294054067798
aF68.03675477269621
aF68.044103344816
aF68.05145112339633
aF68.05879810869422
aF68.06614430096654
aF68.07348970047003
aF68.0808343074613
aF68.08817812219681
aF68.09552114493287
aF68.10286337592568
aF68.11020481543129
aF68.11754546370561
aF68.1248853210044
aF68.13222438758329
aF68.1395626636978
aF68.14690014960328
aF68.15423684555495
aF68.1615727518079
aF68.16890786861705
aF68.17624219623724
aF68.18357573492314
aF68.19090848492928
aF68.19824044651006
aF68.20557161991974
aF68.21290200541243
aF68.22023160324215
aF68.22756041366274
aF68.23488843692792
aF68.24221567329127
aF68.24954212300622
aF68.25686778632608
aF68.26419266350405
aF68.27151675479314
aF68.27884006044626
aF68.28616258071617
aF68.2934843158555
aF68.30080526611674
aF68.30812543175226
aF68.31544481301428
aF68.32276341015489
aF68.33008122342603
aF68.33739825307956
aF68.3447144993671
aF68.35202996254024
aF68.3593446428504
aF68.36665854054884
aF68.37397165588672
aF68.38128398911503
aF68.38859554048467
aF68.39590631024637
aF68.40321629865075
aF68.41052550594829
aF68.4178339323893
aF68.42514157822401
aF68.4324484437025
aF68.43975452907469
aF68.4470598345904
aF68.45436436049933
aF68.46166810705097
aF68.46897107449476
aF68.47627326307996
aF68.48357467305573
aF68.49087530467106
aF68.49817515817483
aF68.5054742338158
aF68.51277253184256
aF68.5200700525036
aF68.52736679604726
aF68.53466276272175
aF68.54195795277518
aF68.54925236645546
aF68.55654600401044
aF68.5638388656878
aF68.57113095173507
aF68.57842226239971
aF68.58571279792899
aF68.59300255857006
aF68.60029154456998
aF68.60757975617562
aF68.61486719363377
aF68.62215385719105
aF68.62943974709395
aF68.63672486358888
aF68.64400920692205
aF68.65129277733959
aF68.65857557508748
aF68.66585760041157
aF68.67313885355759
aF68.6804193347711
aF68.68769904429759
aF68.69497798238238
aF68.70225614927067
aF68.70953354520753
aF68.71681017043792
aF68.72408602520662
aF68.73136110975832
aF68.7386354243376
aF68.74590896918885
aF68.75318174455637
aF68.76045375068433
aF68.76772498781678
aF68.7749954561976
aF68.78226515607058
aF68.78953408767936
aF68.79680225126747
aF68.8040696470783
aF68.81133627535509
aF68.81860213634101
aF68.82586723027906
aF68.83313155741209
aF68.84039511798287
aF68.84765791223403
aF68.85491994040804
aF68.86218120274728
aF68.86944169949398
aF68.87670143089025
aF68.8839603971781
aF68.89121859859934
aF68.89847603539573
aF68.90573270780887
aF68.9129886160802
aF68.92024376045111
aF68.92749814116279
aF68.93475175845634
aF68.94200461257273
aF68.9492567037528
aF68.95650803223725
aF68.96375859826666
aF68.97100840208152
aF68.97825744392213
aF68.98550572402873
aF68.99275324264136
aF69.0
aF69.00724599634447
aF69.01449123191448
aF69.02173570694958
aF69.02897942168927
aF69.03622237637282
aF69.04346457123947
aF69.05070600652827
aF69.05794668247819
aF69.06518659932803
aF69.0724257573165
aF69.07966415668217
aF69.0869017976635
aF69.0941386804988
aF69.10137480542626
aF69.10861017268398
aF69.1158447825099
aF69.12307863514182
aF69.13031173081747
aF69.13754406977442
aF69.14477565225012
aF69.15200647848188
aF69.15923654870693
aF69.16646586316233
aF69.17369442208505
aF69.18092222571191
aF69.18814927427962
aF69.19537556802477
aF69.20260110718382
aF69.2098258919931
aF69.21704992268884
aF69.22427319950712
aF69.2314957226839
aF69.23871749245504
aF69.24593850905626
aF69.25315877272314
aF69.26037828369117
aF69.26759704219572
aF69.27481504847198
aF69.2820323027551
aF69.28924880528002
aF69.29646455628166
aF69.30367955599472
aF69.31089380465383
aF69.31810730249349
aF69.32532004974806
aF69.3325320466518
aF69.33974329343886
aF69.34695379034324
aF69.35416353759881
aF69.36137253543934
aF69.3685807840985
aF69.3757882838098
aF69.38299503480663
aF69.39020103732227
aF69.39740629158989
aF69.40461079784254
aF69.4118145563131
aF69.41901756723442
aF69.42621983083913
aF69.4334213473598
aF69.44062211702888
aF69.44782214007866
aF69.45502141674135
aF69.46221994724903
aF69.46941773183363
aF69.476614770727
aF69.48381106416083
aF69.49100661236676
aF69.49820141557622
aF69.50539547402057
aF69.51258878793107
aF69.5197813575388
aF69.52697318307479
aF69.53416426476987
aF69.54135460285484
aF69.54854419756032
aF69.55573304911681
aF69.56292115775473
aF69.57010852370435
aF69.57729514719583
aF69.58448102845921
aF69.59166616772443
aF69.59885056522126
aF69.60603422117941
aF69.61321713582845
aF69.62039930939781
aF69.62758074211685
aF69.63476143421474
aF69.6419413859206
aF69.6491205974634
aF69.65629906907199
aF69.66347680097513
aF69.67065379340143
aF69.67783004657937
aF69.68500556073738
aF69.6921803361037
aF69.6993543729065
aF69.70652767137379
aF69.7137002317335
aF69.72087205421343
aF69.72804313904126
aF69.73521348644456
aF69.74238309665078
aF69.74955196988724
aF69.75672010638115
aF69.76388750635962
aF69.77105417004964
aF69.77822009767804
aF69.7853852894716
aF69.79254974565696
aF69.79971346646059
aF69.80687645210892
aF69.81403870282824
aF69.82120021884471
aF69.82836100038436
aF69.83552104767315
aF69.8426803609369
aF69.84983894040128
aF69.85699678629192
aF69.86415389883427
aF69.87131027825369
aF69.87846592477543
aF69.88562083862459
aF69.8927750200262
aF69.89992846920518
aF69.90708118638626
aF69.91423317179414
aF69.92138442565336
aF69.92853494818836
aF69.93568473962345
aF69.94283380018284
aF69.94998213009065
aF69.95712972957081
aF69.96427659884722
aF69.9714227381436
aF69.97856814768362
aF69.98571282769076
aF69.99285677838846
aF70.0
aF70.00714249274856
aF70.01428425685718
aF70.02142529254886
aF70.02856560004639
aF70.03570517957252
aF70.04284403134984
aF70.04998215560087
aF70.05711955254797
aF70.06425622241343
aF70.07139216541941
aF70.07852738178792
aF70.08566187174092
aF70.09279563550022
aF70.09992867328754
aF70.10706098532444
aF70.11419257183242
aF70.12132343303284
aF70.12845356914696
aF70.13558298039591
aF70.14271166700073
aF70.14983962918234
aF70.15696686716153
aF70.16409338115899
aF70.17121917139534
aF70.178344238091
aF70.18546858146635
aF70.19259220174163
aF70.19971509913698
aF70.20683727387241
aF70.21395872616783
aF70.22107945624305
aF70.22819946431775
aF70.2353187506115
aF70.24243731534378
aF70.24955515873393
aF70.25667228100119
aF70.26378868236469
aF70.27090436304346
aF70.2780193232564
aF70.28513356322232
aF70.2922470831599
aF70.2993598832877
aF70.30647196382421
aF70.31358332498779
aF70.32069396699666
aF70.32780389006896
aF70.33491309442275
aF70.3420215802759
aF70.34912934784623
aF70.35623639735144
aF70.36334272900912
aF70.37044834303673
aF70.37755323965163
aF70.3846574190711
aF70.39176088151227
aF70.39886362719217
aF70.40596565632774
aF70.41306696913578
aF70.42016756583301
aF70.42726744663604
aF70.43436661176133
aF70.44146506142529
aF70.44856279584417
aF70.45565981523414
aF70.46275611981126
aF70.46985170979147
aF70.4769465853906
aF70.48404074682438
aF70.49113419430843
aF70.49822692805827
aF70.50531894828929
aF70.51241025521678
aF70.51950084905593
aF70.52659073002182
aF70.53367989832942
aF70.54076835419359
aF70.54785609782908
aF70.55494312945054
aF70.5620294492725
aF70.5691150575094
aF70.57619995437555
aF70.58328414008518
aF70.59036761485238
aF70.59745037889117
aF70.60453243241541
aF70.61161377563892
aF70.61869440877535
aF70.6257743320383
aF70.63285354564121
aF70.63993204979744
aF70.64700984472024
aF70.65408693062278
aF70.66116330771806
aF70.66823897621902
aF70.67531393633848
aF70.68238818828917
aF70.68946173228369
aF70.69653456853455
aF70.70360669725413
aF70.71067811865476
aF70.71774883294857
aF70.7248188403477
aF70.73188814106408
aF70.73895673530957
aF70.74602462329597
aF70.75309180523492
aF70.76015828133795
aF70.76722405181653
aF70.77428911688199
aF70.78135347674555
aF70.78841713161836
aF70.79548008171143
aF70.80254232723568
aF70.80960386840192
aF70.81666470542086
aF70.8237248385031
aF70.83078426785913
aF70.83784299369935
aF70.84490101623405
aF70.8519583356734
aF70.8590149522275
aF70.8660708661063
aF70.87312607751969
aF70.8801805866774
aF70.88723439378913
aF70.8942874990644
aF70.90133990271269
aF70.90839160494335
aF70.9154426059656
aF70.92249290598858
aF70.92954250522133
aF70.9365914038728
aF70.94363960215179
aF70.95068710026705
aF70.95773389842716
aF70.96477999684069
aF70.97182539571601
aF70.97887009526144
aF70.9859140956852
aF70.9929573971954
aF71.0
aF71.00704190430693
aF71.01408311032397
aF71.02112361825881
aF71.02816342831905
aF71.03520254071216
aF71.04224095564554
aF71.04927867332644
aF71.05631569396206
aF71.06335201775947
aF71.07038764492565
aF71.07742257566744
aF71.08445681019164
aF71.09149034870488
aF71.09852319141376
aF71.10555533852471
aF71.11258679024411
aF71.11961754677819
aF71.12664760833313
aF71.13367697511495
aF71.14070564732964
aF71.14773362518304
aF71.15476090888086
aF71.16178749862878
aF71.16881339463234
aF71.17583859709698
aF71.18286310622803
aF71.18988692223074
aF71.19691004531025
aF71.20393247567159
aF71.21095421351971
aF71.21797525905943
aF71.22499561249548
aF71.2320152740325
aF71.23903424387504
aF71.2460525222275
aF71.25307010929424
aF71.26008700527947
aF71.26710321038733
aF71.27411872482185
aF71.28113354878694
aF71.28814768248647
aF71.29516112612411
aF71.30217387990355
aF71.30918594402827
aF71.31619731870173
aF71.32320800412724
aF71.33021800050803
aF71.33722730804723
aF71.34423592694787
aF71.35124385741288
aF71.35825109964509
aF71.36525765384722
aF71.37226352022192
aF71.37926869897169
aF71.386273190299
aF71.39327699440614
aF71.40028011149536
aF71.40728254176881
aF71.4142842854285
aF71.42128534267638
aF71.42828571371429
aF71.43528539874394
aF71.442284397967
aF71.449282711585
aF71.45628033979938
aF71.46327728281149
aF71.47027354082255
aF71.47726911403373
aF71.48426400264607
aF71.49125820686051
aF71.49825172687791
aF71.50524456289902
aF71.5122367151245
aF71.51922818375489
aF71.52621896899066
aF71.53320907103218
aF71.54019849007969
aF71.54718722633336
aF71.55417527999327
aF71.56116265125938
aF71.56814934033156
aF71.57513534740957
aF71.58212067269312
aF71.58910531638176
aF71.596089278675
aF71.60307255977219
aF71.61005515987263
aF71.61703707917552
aF71.62401831787993
aF71.63099887618489
aF71.63797875428926
aF71.64495795239188
aF71.65193647069142
aF71.65891430938652
aF71.66589146867567
aF71.67286794875729
aF71.6798437498297
aF71.68681887209112
aF71.69379331573968
aF71.7007670809734
aF71.70774016799024
aF71.71471257698799
aF71.72168430816443
aF71.72865536171719
aF71.73562573784382
aF71.74259543674177
aF71.74956445860839
aF71.75653280364095
aF71.76350047203663
aF71.77046746399246
aF71.77743377970545
aF71.78439941937245
aF71.79136438319027
aF71.79832867135558
aF71.80529228406496
aF71.81225522151495
aF71.8192174839019
aF71.82617907142215
aF71.83313998427188
aF71.84010022264724
aF71.84705978674423
aF71.85401867675878
aF71.86097689288673
aF71.8679344353238
aF71.87489130426563
aF71.88184749990779
aF71.88880302244571
aF71.89575787207477
aF71.9027120489902
aF71.90966555338719
aF71.91661838546081
aF71.92357054540605
aF71.93052203341777
aF71.93747284969079
aF71.9444229944198
aF71.95137246779939
aF71.95832127002409
aF71.96526940128828
aF71.97221686178632
aF71.97916365171243
aF71.98610977126073
aF71.99305522062528
aF72.0
aF72.00694410957877
aF72.01388754955533
aF72.02083032012335
aF72.02777242147643
aF72.03471385380801
aF72.04165461731151
aF72.04859471218019
aF72.05553413860729
aF72.06247289678588
aF72.069410986909
aF72.07634840916957
aF72.0832851637604
aF72.09022125087424
aF72.09715667070374
aF72.10409142344143
aF72.11102550927978
aF72.11795892841117
aF72.12489168102785
aF72.131823767322
aF72.13875518748573
aF72.14568594171102
aF72.15261603018979
aF72.15954545311382
aF72.16647421067486
aF72.17340230306452
aF72.18032973047436
aF72.18725649309579
aF72.19418259112018
aF72.20110802473879
aF72.20803279414278
aF72.21495689952324
aF72.22188034107116
aF72.22880311897741
aF72.2357252334328
aF72.24264668462804
aF72.24956747275377
aF72.2564875980005
aF72.26340706055866
aF72.27032586061861
aF72.27724399837061
aF72.2841614740048
aF72.29107828771127
aF72.29799443968
aF72.30490993010088
aF72.3118247591637
aF72.31873892705818
aF72.32565243397394
aF72.3325652801005
aF72.3394774656273
aF72.34638899074369
aF72.35329985563892
aF72.36021006050217
aF72.3671196055225
aF72.37402849088892
aF72.38093671679029
aF72.38784428341543
aF72.39475119095306
aF72.40165743959182
aF72.40856302952021
aF72.41546796092669
aF72.42237223399962
aF72.42927584892728
aF72.43617880589781
aF72.44308110509934
aF72.44998274671983
aF72.4568837309472
aF72.46378405796926
aF72.47068372797375
aF72.47758274114831
aF72.48448109768049
aF72.49137879775773
aF72.49827584156743
aF72.50517222929686
aF72.5120679611332
aF72.51896303726357
aF72.52585745787498
aF72.53275122315436
aF72.53964433328854
aF72.54653678846427
aF72.55342858886821
aF72.56031973468694
aF72.56721022610694
aF72.5741000633146
aF72.58098924649622
aF72.58787777583802
aF72.59476565152615
aF72.60165287374662
aF72.60853944268538
aF72.61542535852834
aF72.62231062146122
aF72.62919523166975
aF72.63607918933951
aF72.64296249465602
aF72.64984514780468
aF72.65672714897086
aF72.6636084983398
aF72.67048919609665
aF72.6773692424265
aF72.6842486375143
aF72.69112738154499
aF72.69800547470336
aF72.70488291717415
aF72.71175970914196
aF72.71863585079137
aF72.72551134230683
aF72.73238618387272
aF72.73926037567333
aF72.74613391789285
aF72.75300681071539
aF72.75987905432498
aF72.76675064890557
aF72.77362159464101
aF72.78049189171504
aF72.78736154031138
aF72.79423054061358
aF72.80109889280519
aF72.80796659706958
aF72.81483365359011
aF72.82170006255004
aF72.8285658241325
aF72.83543093852057
aF72.84229540589725
aF72.84915922644544
aF72.85602240034794
aF72.86288492778748
aF72.86974680894672
aF72.8766080440082
aF72.8834686331544
aF72.89032857656768
aF72.89718787443039
aF72.90404652692469
aF72.91090453423274
aF72.91776189653656
aF72.92461861401813
aF72.9314746868593
aF72.93833011524188
aF72.94518489934754
aF72.9520390393579
aF72.95889253545451
aF72.9657453878188
aF72.97259759663213
aF72.97944916207575
aF72.98630008433089
aF72.99315036357864
aF73.0
aF73.00684899377592
aF73.01369734508724
aF73.02054505411473
aF73.02739212103907
aF73.03423854604085
aF73.04108432930059
aF73.0479294709987
aF73.05477397131553
aF73.06161783043132
aF73.06846104852626
aF73.07530362578044
aF73.08214556237385
aF73.08898685848642
aF73.09582751429797
aF73.10266752998827
aF73.10950690573696
aF73.11634564172364
aF73.12318373812782
aF73.13002119512889
aF73.13685801290619
aF73.14369419163897
aF73.15052973150638
aF73.15736463268753
aF73.16419889536138
aF73.17103251970687
aF73.1778655059028
aF73.18469785412795
aF73.19152956456095
aF73.1983606373804
aF73.20519107276478
aF73.2120208708925
aF73.21885003194191
aF73.22567855609124
aF73.23250644351864
aF73.23933369440222
aF73.24616030891995
aF73.25298628724975
aF73.25981162956946
aF73.2666363360568
aF73.27346040688948
aF73.28028384224504
aF73.287106642301
aF73.29392880723478
aF73.3007503372237
aF73.30757123244501
aF73.3143914930759
aF73.32121111929344
aF73.32803011127464
aF73.33484846919642
aF73.34166619323561
aF73.348483283569
aF73.35529974037323
aF73.3621155638249
aF73.36893075410055
aF73.37574531137656
aF73.38255923582933
aF73.38937252763509
aF73.39618518697004
aF73.40299721401027
aF73.40980860893181
aF73.41661937191061
aF73.4234295031225
aF73.43023900274328
aF73.43704787094863
aF73.44385610791416
aF73.45066371381542
aF73.45747068882783
aF73.46427703312679
aF73.47108274688756
aF73.47788783028538
aF73.48469228349535
aF73.49149610669251
aF73.49829930005184
aF73.50510186374821
aF73.51190379795642
aF73.5187051028512
aF73.5255057786072
aF73.53230582539895
aF73.53910524340094
aF73.54590403278758
aF73.55270219373317
aF73.55949972641196
aF73.56629663099808
aF73.57309290766564
aF73.57988855658861
aF73.58668357794092
aF73.59347797189639
aF73.60027173862879
aF73.60706487831179
aF73.61385739111897
aF73.62064927722385
aF73.62744053679987
aF73.63423117002037
aF73.64102117705865
aF73.64781055808787
aF73.65459931328118
aF73.66138744281159
aF73.66817494685205
aF73.67496182557545
aF73.68174807915459
aF73.68853370776216
aF73.69531871157082
aF73.70210309075311
aF73.70888684548153
aF73.71566997592845
aF73.72245248226622
aF73.72923436466705
aF73.7360156233031
aF73.74279625834649
aF73.74957626996917
aF73.7563556583431
aF73.76313442364011
aF73.76991256603196
aF73.77669008569035
aF73.78346698278686
aF73.79024325749306
aF73.79701890998037
aF73.80379394042016
aF73.81056834898374
aF73.81734213584231
aF73.824115301167
aF73.83088784512888
aF73.83765976789893
aF73.84443106964804
aF73.85120175054702
aF73.85797181076664
aF73.86474125047755
aF73.87151006985034
aF73.87827826905551
aF73.8850458482635
aF73.89181280764467
aF73.89857914736926
aF73.90534486760751
aF73.91210996852952
aF73.91887445030531
aF73.92563831310488
aF73.93240155709809
aF73.93916418245476
aF73.9459261893446
aF73.95268757793728
aF73.95944834840239
aF73.96620850090939
aF73.97296803562772
aF73.97972695272672
aF73.98648525237566
aF73.9932429347437
aF74.0
aF74.00675644831355
aF74.01351227985333
aF74.02026749478821
aF74.02702209328699
aF74.03377607551839
aF74.04052944165107
aF74.04728219185361
aF74.05403432629447
aF74.06078584514209
aF74.06753674856482
aF74.07428703673091
aF74.08103670980854
aF74.08778576796583
aF74.09453421137081
aF74.10128204019145
aF74.10802925459562
aF74.11477585475112
aF74.1215218408257
aF74.12826721298698
aF74.13501197140255
aF74.14175611623992
aF74.14849964766651
aF74.15524256584965
aF74.16198487095663
aF74.16872656315464
aF74.17546764261078
aF74.18220810949214
aF74.18894796396563
aF74.19568720619817
aF74.2024258363566
aF74.20916385460761
aF74.21590126111789
aF74.22263805605402
aF74.22937423958254
aF74.23610981186985
aF74.24284477308234
aF74.24957912338628
aF74.2563128629479
aF74.2630459919333
aF74.26977851050857
aF74.27651041883968
aF74.28324171709255
aF74.28997240543302
aF74.29670248402684
aF74.30343195303969
aF74.31016081263719
aF74.31688906298487
aF74.32361670424818
aF74.33034373659252
aF74.3370701601832
aF74.34379597518544
aF74.35052118176442
aF74.35724578008521
aF74.36396977031282
aF74.3706931526122
aF74.3774159271482
aF74.38413809408563
aF74.39085965358916
aF74.39758060582346
aF74.4043009509531
aF74.41102068914255
aF74.41773982055622
aF74.42445834535849
aF74.43117626371358
aF74.43789357578571
aF74.444610281739
aF74.45132638173749
aF74.45804187594514
aF74.46475676452586
aF74.47147104764348
aF74.47818472546173
aF74.48489779814429
aF74.49161026585477
aF74.4983221287567
aF74.50503338701353
aF74.51174404078863
aF74.51845409024533
aF74.52516353554684
aF74.53187237685633
aF74.5385806143369
aF74.54528824815154
aF74.55199527846321
aF74.55870170543476
aF74.56540752922899
aF74.57211275000863
aF74.57881736793632
aF74.58552138317464
aF74.59222479588607
aF74.59892760623305
aF74.60562981437795
aF74.61233142048303
aF74.61903242471053
aF74.62573282722254
aF74.63243262818116
aF74.63913182774837
aF74.64583042608609
aF74.65252842335616
aF74.65922581972036
aF74.66592261534039
aF74.67261881037788
aF74.67931440499437
aF74.68600939935136
aF74.69270379361026
aF74.6993975879324
aF74.70609078247904
aF74.7127833774114
aF74.71947537289057
aF74.72616676907762
aF74.73285756613352
aF74.73954776421918
aF74.74623736349542
aF74.75292636412303
aF74.75961476626267
aF74.76630257007497
aF74.77298977572049
aF74.77967638335967
aF74.78636239315294
aF74.79304780526061
aF74.79973261984297
aF74.80641683706017
aF74.81310045707235
aF74.81978348003956
aF74.82646590612174
aF74.83314773547883
aF74.83982896827064
aF74.84650960465692
aF74.85318964479737
aF74.85986908885161
aF74.86654793697917
aF74.87322618933953
aF74.8799038460921
aF74.88658090739622
aF74.89325737341113
aF74.89993324429602
aF74.90660852021001
aF74.91328320131217
aF74.91995728776145
aF74.92663077971676
aF74.93330367733695
aF74.93997598078077
aF74.94664769020693
aF74.95331880577403
aF74.95998932764064
aF74.96665925596525
aF74.97332859090625
aF74.97999733262199
aF74.98666548127073
aF74.9933330370107
aF75.0
aF75.0066663703967
aF75.0133321483588
aF75.0199973340442
aF75.02666192761077
aF75.03332592921628
aF75.03998933901843
aF75.04665215717488
aF75.05331438384317
aF75.05997601918082
aF75.06663706334525
aF75.07329751649384
aF75.07995737878386
aF75.08661665037252
aF75.09327533141699
aF75.09993342207434
aF75.1065909225016
aF75.11324783285569
aF75.11990415329349
aF75.1265598839718
aF75.13321502504735
aF75.1398695766768
aF75.14652353901675
aF75.15317691222374
aF75.15982969645421
aF75.16648189186454
aF75.17313349861105
aF75.17978451685
aF75.18643494673756
aF75.19308478842984
aF75.1997340420829
aF75.20638270785267
aF75.21303078589507
aF75.21967827636595
aF75.22632517942107
aF75.2329714952161
aF75.23961722390672
aF75.24626236564843
aF75.25290692059676
aF75.25955088890711
aF75.26619427073486
aF75.27283706623525
aF75.27947927556353
aF75.28612089887484
aF75.29276193632427
aF75.2994023880668
aF75.30604225425739
aF75.31268153505093
aF75.31932023060219
aF75.32595834106593
aF75.33259586659682
aF75.33923280734945
aF75.34586916347837
aF75.35250493513803
aF75.35914012248281
aF75.3657747256671
aF75.37240874484509
aF75.37904218017101
aF75.38567503179898
aF75.39230729988306
aF75.39893898457723
aF75.40557008603542
aF75.41220060441148
aF75.41883053985921
aF75.4254598925323
aF75.43208866258443
aF75.43871685016919
aF75.44534445544006
aF75.45197147855052
aF75.45859791965393
aF75.46522377890362
aF75.47184905645283
aF75.47847375245475
aF75.48509786706248
aF75.49172140042907
aF75.49834435270749
aF75.50496672405067
aF75.51158851461145
aF75.5182097245426
aF75.52483035399682
aF75.53145040312677
aF75.53806987208503
aF75.54468876102409
aF75.55130707009641
aF75.55792479945436
aF75.56454194925024
aF75.57115851963631
aF75.57777451076474
aF75.58438992278762
aF75.59100475585703
aF75.59761901012492
aF75.6042326857432
aF75.61084578286372
aF75.61745830163825
aF75.62407024221852
aF75.63068160475615
aF75.63729238940273
aF75.64390259630977
aF75.65051222562872
aF75.65712127751095
aF75.66372975210778
aF75.67033764957046
aF75.67694497005016
aF75.68355171369801
aF75.69015788066504
aF75.69676347110224
aF75.70336848516055
aF75.7099729229908
aF75.71657678474378
aF75.7231800705702
aF75.72978278062072
aF75.73638491504595
aF75.7429864739964
aF75.7495874576225
aF75.75618786607468
aF75.76278769950325
aF75.76938695805846
aF75.77598564189053
aF75.78258375114957
aF75.78918128598566
aF75.79577824654879
aF75.8023746329889
aF75.80897044545586
aF75.81556568409947
aF75.82216034906945
aF75.82875444051551
aF75.83534795858722
aF75.84194090343416
aF75.8485332752058
aF75.85512507405153
aF75.8617163001207
aF75.86830695356264
aF75.87489703452651
aF75.8814865431615
aF75.88807547961669
aF75.8946638440411
aF75.9012516365837
aF75.90783885739337
aF75.91442550661897
aF75.92101158440923
aF75.92759709091287
aF75.93418202627852
aF75.94076639065476
aF75.9473501841901
aF75.95393340703298
aF75.96051605933177
aF75.9670981412348
aF75.97367965289031
aF75.9802605944465
aF75.98684096605149
aF75.99342076785332
aF76.0
aF76.00657866263946
aF76.01315675591957
aF76.01973427998811
aF76.02631123499285
aF76.03288762108144
aF76.03946343840151
aF76.04603868710059
aF76.05261336732617
aF76.05918747922567
aF76.06576102294646
aF76.0723339986358
aF76.07890640644094
aF76.08547824650904
aF76.0920495189872
aF76.09862022402245
aF76.10519036176179
aF76.11175993235211
aF76.11832893594026
aF76.12489737267302
aF76.13146524269712
aF76.13803254615921
aF76.14459928320589
aF76.1511654539837
aF76.15773105863909
aF76.16429609731846
aF76.17086057016817
aF76.1774244773345
aF76.18398781896364
aF76.19055059520177
aF76.19711280619497
aF76.20367445208925
aF76.2102355330306
aF76.21679604916491
aF76.22335600063802
aF76.2299153875957
aF76.23647421018367
aF76.24303246854758
aF76.249590162833
aF76.25614729318549
aF76.26270385975047
aF76.26925986267338
aF76.27581530209953
aF76.28237017817419
aF76.28892449104261
aF76.2954782408499
aF76.30203142774116
aF76.30858405186143
aF76.31513611335565
aF76.32168761236873
aF76.32823854904552
aF76.3347889235308
aF76.34133873596926
aF76.34788798650555
aF76.3544366752843
aF76.36098480245
aF76.36753236814714
aF76.3740793725201
aF76.38062581571324
aF76.38717169787084
aF76.39371701913711
aF76.40026177965623
aF76.40680597957227
aF76.41334961902926
aF76.4198926981712
aF76.42643521714199
aF76.43297717608546
aF76.43951857514541
aF76.44605941446557
aF76.4525996941896
aF76.4591394144611
aF76.46567857542362
aF76.47221717722064
aF76.47875521999558
aF76.48529270389177
aF76.49182962905255
aF76.49836599562111
aF76.50490180374065
aF76.51143705355429
aF76.51797174520506
aF76.52450587883597
aF76.53103945458993
aF76.53757247260981
aF76.54410493303844
aF76.55063683601855
aF76.55716818169282
aF76.56369897020389
aF76.5702292016943
aF76.57675887630658
aF76.58328799418317
aF76.58981655546643
aF76.5963445602987
aF76.60287200882223
aF76.60939890117922
aF76.61592523751182
aF76.62245101796209
aF76.62897624267207
aF76.6355009117837
aF76.64202502543888
aF76.64854858377946
aF76.6550715869472
aF76.66159403508382
aF76.66811592833099
aF76.67463726683029
aF76.68115805072325
aF76.68767828015137
aF76.69419795525604
aF76.70071707617863
aF76.70723564306043
aF76.71375365604267
aF76.72027111526653
aF76.72678802087313
aF76.7333043730035
aF76.73982017179868
aF76.74633541739958
aF76.75285010994706
aF76.75936424958195
aF76.76587783644501
aF76.77239087067694
aF76.77890335241837
aF76.78541528180986
aF76.79192665899195
aF76.79843748410511
aF76.8049477572897
aF76.81145747868608
aF76.81796664843453
aF76.82447526667526
aF76.83098333354845
aF76.83749084919418
aF76.84399781375251
aF76.8505042273634
aF76.8570100901668
aF76.86351540230254
aF76.87002016391045
aF76.87652437513027
aF76.8830280361017
aF76.88953114696434
aF76.89603370785778
aF76.90253571892151
aF76.909037180295
aF76.91553809211764
aF76.92203845452875
aF76.9285382676676
aF76.93503753167343
aF76.94153624668537
aF76.94803441284255
aF76.95453203028396
aF76.96102909914862
aF76.96752561957543
aF76.97402159170326
aF76.98051701567093
aF76.98701189161714
aF76.99350621968063
aF77.0
aF77.00649323271382
aF77.01298591796062
aF77.01947805587882
aF77.02596964660685
aF77.03246069028303
aF77.03895118704564
aF77.0454411370329
aF77.05193054038295
aF77.05841939723393
aF77.06490770772389
aF77.07139547199077
aF77.07788269017254
aF77.08436936240706
aF77.09085548883213
aF77.09734106958553
aF77.10382610480494
aF77.110310594628
aF77.1167945391923
aF77.12327793863537
aF77.12976079309465
aF77.13624310270757
aF77.14272486761146
aF77.14920608794364
aF77.15568676384133
aF77.1621668954417
aF77.1686464828819
aF77.17512552629896
aF77.18160402582988
aF77.18808198161165
aF77.19455939378112
aF77.20103626247513
aF77.20751258783046
aF77.21398836998384
aF77.22046360907191
aF77.22693830523129
aF77.23341245859851
aF77.23988606931007
aF77.2463591375024
aF77.25283166331187
aF77.25930364687478
aF77.26577508832743
aF77.272245987806
aF77.27871634544663
aF77.28518616138541
aF77.2916554357584
aF77.29812416870153
aF77.30459236035075
aF77.31106001084191
aF77.31752712031083
aF77.32399368889322
aF77.33045971672482
aF77.33692520394123
aF77.34339015067803
aF77.34985455707076
aF77.35631842325486
aF77.36278174936577
aF77.3692445355388
aF77.37570678190927
aF77.38216848861241
aF77.38862965578342
aF77.3950902835574
aF77.40155037206942
aF77.40800992145451
aF77.41446893184762
aF77.42092740338364
aF77.42738533619743
aF77.43384273042376
aF77.44029958619737
aF77.44675590365293
aF77.45321168292507
aF77.45966692414834
aF77.46612162745726
aF77.47257579298626
aF77.47902942086975
aF77.48548251124207
aF77.4919350642375
aF77.49838707999025
aF77.50483855863452
aF77.5112895003044
aF77.51773990513398
aF77.52418977325722
aF77.5306391048081
aF77.53708789992051
aF77.54353615872827
aF77.54998388136518
aF77.55643106796495
aF77.56287771866127
aF77.56932383358772
aF77.57576941287789
aF77.58221445666526
aF77.5886589650833
aF77.59510293826537
aF77.60154637634484
aF77.60798927945498
aF77.61443164772902
aF77.62087348130012
aF77.6273147803014
aF77.63375554486592
aF77.64019577512668
aF77.64663547121665
aF77.6530746332687
aF77.6595132614157
aF77.6659513557904
aF77.67238891652555
aF77.67882594375381
aF77.68526243760782
aF77.69169839822013
aF77.69813382572325
aF77.70456872024965
aF77.71100308193171
aF77.7174369109018
aF77.72387020729218
aF77.7303029712351
aF77.73673520286275
aF77.74316690230724
aF77.74959806970065
aF77.75602870517501
aF77.76245880886226
aF77.76888838089432
aF77.77531742140305
aF77.78174593052023
aF77.78817390837762
aF77.79460135510689
aF77.80102827083971
aF77.80745465570763
aF77.8138805098422
aF77.82030583337487
aF77.82673062643708
aF77.83315488916018
aF77.83957862167549
aF77.84600182411425
aF77.85242449660768
aF77.85884663928692
aF77.86526825228306
aF77.87168933572714
aF77.87810988975015
aF77.88452991448301
aF77.89094941005662
aF77.89736837660179
aF77.90378681424929
aF77.91020472312982
aF77.91662210337407
aF77.92303895511263
aF77.92945527847606
aF77.93587107359485
aF77.94228634059948
aF77.9487010796203
aF77.95511529078769
aF77.9615289742319
aF77.96794213008319
aF77.9743547584717
aF77.9807668595276
aF77.98717843338096
aF77.99358948016176
aF78.0
aF78.00640999302557
aF78.01281945936834
aF78.01922839915811
aF78.02563681252464
aF78.03204469959762
aF78.03845206050669
aF78.04485889538144
aF78.05126520435142
aF78.05767098754612
aF78.06407624509497
aF78.07048097712733
aF78.07688518377255
aF78.08328886515987
aF78.08969202141856
aF78.09609465267773
aF78.10249675906654
aF78.10889834071403
aF78.11529939774923
aF78.12169993030106
aF78.12809993849844
aF78.13449942247023
aF78.14089838234521
aF78.14729681825213
aF78.15369473031969
aF78.16009211867653
aF78.16648898345122
aF78.1728853247723
aF78.17928114276826
aF78.18567643756751
aF78.19207120929845
aF78.19846545808939
aF78.20485918406861
aF78.21125238736431
aF78.21764506810467
aF78.22403722641782
aF78.23042886243178
aF78.2368199762746
aF78.24321056807422
aF78.24960063795854
aF78.2559901860554
aF78.26237921249263
aF78.26876771739798
aF78.27515570089912
aF78.2815431631237
aF78.28793010419933
aF78.29431652425353
aF78.3007024234138
aF78.30708780180757
aF78.31347265956222
aF78.3198569968051
aF78.32624081366346
aF78.33262411026456
aF78.33900688673555
aF78.34538914320358
aF78.3517708797957
aF78.35815209663893
aF78.36453279386026
aF78.37091297158659
aF78.3772926299448
aF78.38367176906169
aF78.39005038906404
aF78.39642849007855
aF78.40280607223188
aF78.40918313565064
aF78.41555968046137
aF78.4219357067906
aF78.42831121476479
aF78.43468620451031
aF78.44106067615353
aF78.44743462982075
aF78.45380806563821
aF78.46018098373213
aF78.46655338422862
aF78.4729252672538
aF78.47929663293371
aF78.48566748139433
aF78.49203781276162
aF78.49840762716146
aF78.50477692471968
aF78.51114570556209
aF78.5175139698144
aF78.52388171760232
aF78.53024894905147
aF78.53661566428744
aF78.54298186343577
aF78.54934754662193
aF78.55571271397135
aF78.56207736560943
aF78.56844150166147
aF78.57480512225277
aF78.58116822750856
aF78.587530817554
aF78.59389289251423
aF78.60025445251433
aF78.60661549767933
aF78.61297602813418
aF78.61933604400383
aF78.62569554541314
aF78.63205453248695
aF78.63841300535
aF78.64477096412705
aF78.65112840894274
aF78.65748533992172
aF78.66384175718855
aF78.67019766086774
aF78.67655305108377
aF78.68290792796108
aF78.689262291624
aF78.6956161421969
aF78.70196947980399
aF78.70832230456955
aF78.71467461661771
aF78.7210264160726
aF78.7273777030583
aF78.7337284776988
aF78.74007874011811
aF78.74642849044012
aF78.75277772878871
aF78.75912645528771
aF78.76547467006087
aF78.77182237323191
aF78.77816956492453
aF78.78451624526231
aF78.79086241436883
aF78.79720807236764
aF78.80355321938218
aF78.8098978555359
aF78.81624198095213
aF78.82258559575422
aF78.82892870006543
aF78.835271294009
aF78.8416133777081
aF78.84795495128583
aF78.85429601486528
aF78.86063656856949
aF78.86697661252141
aF78.87331614684399
aF78.87965517166008
aF78.88599368709251
aF78.89233169326408
aF78.8986691902975
aF78.90500617831546
aF78.91134265744057
aF78.91767862779544
aF78.92401408950256
aF78.93034904268447
aF78.93668348746354
aF78.9430174239622
aF78.94935085230277
aF78.95568377260753
aF78.96201618499872
aF78.96834808959854
aF78.9746794865291
aF78.98101037591252
aF78.98734075787081
aF78.99367063252599
aF79.0
aF79.00632886041473
aF79.012657213892
aF79.01898506055365
aF79.02531240052139
aF79.03163923391695
aF79.03796556086195
aF79.04429138147802
aF79.05061669588669
aF79.05694150420949
aF79.06326580656784
aF79.06958960308319
aF79.07591289387686
aF79.08223567907018
aF79.0885579587844
aF79.09487973314076
aF79.1012010022604
aF79.10752176626443
aF79.11384202527394
aF79.12016177940993
aF79.12648102879339
aF79.13279977354523
aF79.13911801378633
aF79.14543574963751
aF79.15175298121956
aF79.1580697086532
aF79.16438593205912
aF79.17070165155795
aF79.17701686727027
aF79.18333157931662
aF79.18964578781748
aF79.19595949289332
aF79.20227269466452
aF79.20858539325141
aF79.21489758877429
aF79.22120928135344
aF79.22752047110903
aF79.23383115816122
aF79.24014134263012
aF79.2464510246358
aF79.25276020429824
aF79.25906888173743
aF79.26537705707328
aF79.27168473042566
aF79.27799190191436
aF79.28429857165919
aF79.29060473977985
aF79.29691040639604
aF79.30321557162736
aF79.30952023559341
aF79.31582439841371
aF79.32212806020776
aF79.328431221095
aF79.33473388119481
aF79.34103604062655
aF79.3473376995095
aF79.3536388579629
aF79.35993951610598
aF79.36623967405788
aF79.37253933193772
aF79.37883848986453
aF79.38513714795737
aF79.39143530633515
aF79.39773296511683
aF79.40403012442127
aF79.41032678436729
aF79.41662294507366
aF79.42291860665912
aF79.42921376924235
aF79.435508432942
aF79.44180259787665
aF79.44809626416482
aF79.45438943192504
aF79.46068210127572
aF79.46697427233529
aF79.47326594522211
aF79.47955712005447
aF79.48584779695062
aF79.4921379760288
aF79.49842765740716
aF79.50471684120383
aF79.51100552753688
aF79.51729371652434
aF79.52358140828417
aF79.52986860293433
aF79.5361553005927
aF79.54244150137711
aF79.54872720540537
aF79.55501241279521
aF79.56129712366435
aF79.56758133813042
aF79.57386505631105
aF79.58014827832379
aF79.58643100428615
aF79.59271323431561
aF79.5989949685296
aF79.60527620704548
aF79.61155694998057
aF79.61783719745218
aF79.62411694957753
aF79.63039620647382
aF79.63667496825819
aF79.64295323504773
aF79.64923100695951
aF79.65550828411052
aF79.66178506661774
aF79.66806135459805
aF79.67433714816836
aF79.68061244744545
aF79.68688725254614
aF79.69316156358713
aF79.6994353806851
aF79.7057087039567
aF79.71198153351854
aF79.71825386948713
aF79.724525711979
aF79.73079706111058
aF79.7370679169983
aF79.74333827975852
aF79.74960814950754
aF79.75587752636166
aF79.76214641043707
aF79.76841480184999
aF79.77468270071653
aF79.78095010715278
aF79.78721702127478
aF79.79348344319854
aF79.79974937304002
aF79.8060148109151
aF79.81227975693966
aF79.81854421122951
aF79.82480817390042
aF79.83107164506812
aF79.8373346248483
aF79.84359711335657
aF79.84985911070852
aF79.85612061701971
aF79.86238163240563
aF79.86864215698174
aF79.87490219086344
aF79.88116173416608
aF79.88742078700501
aF79.89367934949547
aF79.89993742175271
aF79.90619500389191
aF79.91245209602819
aF79.91870869827665
aF79.92496481075234
aF79.93122043357026
aF79.93747556684536
aF79.94373021069256
aF79.94998436522674
aF79.95623803056269
aF79.96249120681522
aF79.96874389409902
aF79.97499609252883
aF79.98124780221924
aF79.98749902328488
aF79.9937497558403
aF80.0
aF80.00624975587844
aF80.01249902359005
aF80.01874780324921
aF80.02499609497022
aF80.0312438988674
aF80.03749121505496
aF80.04373804364711
aF80.049984384758
aF80.05623023850174
aF80.06247560499239
aF80.06872048434394
aF80.0749648766704
aF80.0812087820857
aF80.0874522007037
aF80.09369513263825
aF80.09993757800315
aF80.10617953691214
aF80.11242100947892
aF80.11866199581718
aF80.12490249604052
aF80.1311425102625
aF80.1373820385967
aF80.14362108115655
aF80.14985963805552
aF80.15609770940699
aF80.16233529532433
aF80.16857239592083
aF80.17480901130978
aF80.18104514160439
aF80.18728078691782
aF80.19351594736322
aF80.19975062305369
aF80.20598481410225
aF80.2122185206219
aF80.21845174272562
aF80.22468448052632
aF80.23091673413684
aF80.23714850367004
aF80.24337978923869
aF80.24961059095551
aF80.25584090893322
aF80.26207074328447
aF80.26830009412184
aF80.2745289615579
aF80.2807573457052
aF80.2869852466762
aF80.2932126645833
aF80.29943959953893
aF80.30566605165541
aF80.31189202104505
aF80.31811750782012
aF80.32434251209281
aF80.3305670339753
aF80.33679107357973
aF80.34301463101818
aF80.34923770640266
aF80.3554602998452
aF80.36168241145776
aF80.36790404135223
aF80.37412518964048
aF80.38034585643433
aF80.38656604184557
aF80.39278574598593
aF80.39900496896712
aF80.40522371090077
aF80.4114419718985
aF80.41765975207187
aF80.4238770515324
aF80.43009387039157
aF80.43631020876082
aF80.44252606675154
aF80.44874144447506
aF80.45495634204272
aF80.46117075956576
aF80.46738469715541
aF80.47359815492284
aF80.47981113297918
aF80.48602363143554
aF80.49223565040295
aF80.49844718999243
aF80.50465825031493
aF80.51086883148137
aF80.51707893360265
aF80.52328855678958
aF80.52949770115296
aF80.53570636680354
aF80.54191455385202
aF80.54812226240907
aF80.55432949258531
aF80.56053624449132
aF80.56674251823763
aF80.57294831393475
aF80.5791536316931
aF80.58535847162312
aF80.59156283383516
aF80.59776671843954
aF80.60397012554654
aF80.61017305526642
aF80.61637550770935
aF80.62257748298549
aF80.62877898120497
aF80.63498000247783
aF80.64118054691411
aF80.64738061462381
aF80.65358020571685
aF80.65977932030313
aF80.66597795849252
aF80.67217612039482
aF80.67837380611982
aF80.68457101577724
aF80.69076774947676
aF80.69696400732806
aF80.7031597894407
aF80.7093550959243
aF80.71554992688831
aF80.72174428244226
aF80.72793816269557
aF80.73413156775763
aF80.7403244977378
aF80.7465169527454
aF80.75270893288967
aF80.75890043827987
aF80.76509146902515
aF80.77128202523468
aF80.77747210701756
aF80.78366171448283
aF80.78985084773953
aF80.79603950689662
aF80.80222769206304
aF80.8084154033477
aF80.8146026408594
aF80.820789404707
aF80.82697569499925
aF80.83316151184488
aF80.83934685535256
aF80.84553172563095
aF80.85171612278863
aF80.85790004693419
aF80.86408349817613
aF80.87026647662292
aF80.876448982383
aF80.88263101556477
aF80.88881257627658
aF80.89499366462674
aF80.90117428072351
aF80.90735442467513
aF80.9135340965898
aF80.91971329657564
aF80.92589202474076
aF80.93207028119323
aF80.93824806604107
aF80.94442537939224
aF80.95060222135473
aF80.95677859203639
aF80.96295449154508
aF80.96912991998865
aF80.97530487747484
aF80.9814793641114
aF80.98765338000602
aF80.99382692526635
aF81.0
aF81.00617260431454
aF81.01234473831751
aF81.01851640211638
aF81.02468759581859
aF81.03085831953157
aF81.03702857336269
aF81.04319835741924
aF81.04936767180853
aF81.05553651663777
aF81.0617048920142
aF81.06787279804497
aF81.0740402348372
aF81.08020720249795
aF81.08637370113428
aF81.09253973085318
aF81.09870529176159
aF81.10487038396646
aF81.11103500757464
aF81.11719916269298
aF81.12336284942828
aF81.12952606788727
aF81.13568881817667
aF81.14185110040317
aF81.14801291467339
aF81.15417426109393
aF81.16033513977132
aF81.1664955508121
aF81.17265549432271
aF81.17881497040962
aF81.18497397917918
aF81.19113252073775
aF81.19729059519166
aF81.20344820264715
aF81.20960534321048
aF81.21576201698781
aF81.2219182240853
aF81.22807396460905
aF81.23422923866515
aF81.24038404635961
aF81.24653838779841
aF81.25269226308751
aF81.25884567233281
aF81.26499861564018
aF81.27115109311545
aF81.2773031048644
aF81.28345465099278
aF81.2896057316063
aF81.29575634681062
aF81.30190649671138
aF81.30805618141414
aF81.3142054010245
aF81.32035415564789
aF81.32650244538985
aF81.33265027035576
aF81.33879763065102
aF81.34494452638098
aF81.35109095765097
aF81.35723692456621
aF81.36338242723197
aF81.36952746575342
aF81.37567204023571
aF81.38181615078395
aF81.38795979750321
aF81.39410298049853
aF81.40024569987489
aF81.40638795573723
aF81.41252974819048
aF81.4186710773395
aF81.42481194328913
aF81.43095234614415
aF81.43709228600933
aF81.44323176298937
aF81.44937077718895
aF81.4555093287127
aF81.4616474176652
aF81.46778504415104
aF81.47392220827471
aF81.48005891014071
aF81.48619514985344
aF81.49233092751734
aF81.49846624323675
aF81.50460109711598
aF81.51073548925933
aF81.51686941977103
aF81.52300288875527
aF81.52913589631623
aF81.53526844255803
aF81.54140052758476
aF81.54753215150045
aF81.55366331440912
aF81.55979401641473
aF81.5659242576212
aF81.57205403813245
aF81.57818335805229
aF81.58431221748455
aF81.59044061653302
aF81.59656855530139
aF81.6026960338934
aF81.60882305241266
aF81.61494961096282
aF81.62107570964744
aF81.62720134857007
aF81.6333265278342
aF81.6394512475433
aF81.64557550780079
aF81.65169930871004
aF81.65782265037441
aF81.6639455328972
aF81.67006795638167
aF81.67618992093105
aF81.68231142664855
aF81.68843247363729
aF81.69455306200041
aF81.70067319184096
aF81.70679286326198
aF81.7129120763665
aF81.71903083125741
aF81.72514912803769
aF81.7312669668102
aF81.73738434767778
aF81.74350127074322
aF81.74961773610933
aF81.75573374387878
aF81.7618492941543
aF81.76796438703852
aF81.77407902263406
aF81.78019320104349
aF81.78630692236935
aF81.79242018671412
aF81.79853299418028
aF81.80464534487024
aF81.81075723888638
aF81.81686867633104
aF81.82297965730655
aF81.82909018191513
aF81.83520025025906
aF81.8413098624405
aF81.84741901856161
aF81.8535277187245
aF81.85963596303125
aF81.8657437515839
aF81.87185108448446
aF81.87795796183488
aF81.88406438373708
aF81.89017035029296
aF81.89627586160435
aF81.90238091777309
aF81.9084855189009
aF81.91458966508958
aF81.92069335644078
aF81.92679659305617
aF81.93289937503738
aF81.93900170248598
aF81.94510357550352
aF81.95120499419151
aF81.95730595865142
aF81.96340646898469
aF81.96950652529269
aF81.97560612767678
aF81.9817052762383
aF81.98780397107853
aF81.99390221229869
aF82.0
aF82.00609733428362
aF82.0121942152507
aF82.0182906430023
aF82.02438661763951
aF82.03048213926333
aF82.03657720797473
aF82.04267182387468
aF82.04876598706406
aF82.05485969764375
aF82.06095295571457
aF82.06704576137733
aF82.07313811473277
aF82.0792300158816
aF82.08532146492453
aF82.09141246196218
aF82.09750300709517
aF82.10359310042405
aF82.10968274204937
aF82.11577193207161
aF82.12186067059123
aF82.12794895770867
aF82.13403679352427
aF82.14012417813842
aF82.1462111116514
aF82.15229759416349
aF82.15838362577492
aF82.16446920658588
aF82.17055433669655
aF82.17663901620703
aF82.18272324521742
aF82.18880702382776
aF82.19489035213807
aF82.20097323024831
aF82.20705565825844
aF82.21313763626833
aF82.21921916437786
aF82.22530024268686
aF82.23138087129512
aF82.23746105030237
aF82.24354077980836
aF82.24962005991274
aF82.25569889071517
aF82.26177727231524
aF82.26785520481253
aF82.27393268830657
aF82.28000972289685
aF82.28608630868283
aF82.29216244576394
aF82.29823813423954
aF82.30431337420902
aF82.31038816577164
aF82.3164625090267
aF82.32253640407346
aF82.3286098510111
aF82.33468284993876
aF82.3407554009556
aF82.34682750416071
aF82.35289915965315
aF82.35897036753191
aF82.365041127896
aF82.37111144084436
aF82.37718130647589
aF82.38325072488946
aF82.38931969618392
aF82.39538822045807
aF82.40145629781065
aF82.40752392834042
aF82.41359111214607
aF82.41965784932621
aF82.42572413997951
aF82.43178998420451
aF82.4378553820998
aF82.44392033376384
aF82.44998483929515
aF82.45604889879213
aF82.46211251235322
aF82.46817568007674
aF82.47423840206105
aF82.48030067840442
aF82.48636250920512
aF82.49242389456137
aF82.49848483457136
aF82.50454532933323
aF82.51060537894507
aF82.516664983505
aF82.52272414311103
aF82.52878285786117
aF82.5348411278534
aF82.54089895318563
aF82.54695633395576
aF82.55301327026167
aF82.55906976220118
aF82.56512580987206
aF82.57118141337206
aF82.57723657279892
aF82.58329128825031
aF82.58934555982388
aF82.59539938761722
aF82.60145277172793
aF82.60750571225353
aF82.61355820929153
aF82.61961026293939
aF82.62566187329455
aF82.63171304045439
aF82.63776376451628
aF82.64381404557754
aF82.64986388373546
aF82.6559132790873
aF82.66196223173026
aF82.66801074176153
aF82.67405880927826
aF82.68010643437755
aF82.68615361715648
aF82.6922003577121
aF82.6982466561414
aF82.70429251254133
aF82.71033792700887
aF82.71638289964086
aF82.72242743053422
aF82.72847151978574
aF82.73451516749222
aF82.74055837375042
aF82.74660113865706
aF82.75264346230881
aF82.75868534480233
aF82.76472678623425
aF82.77076778670111
aF82.7768083462995
aF82.78284846512591
aF82.78888814327681
aF82.79492738084863
aF82.80096617793781
aF82.80700453464067
aF82.81304245105356
aF82.8190799272728
aF82.82511696339462
aF82.83115355951527
aF82.83718971573094
aF82.84322543213779
aF82.84926070883192
aF82.85529554590944
aF82.86132994346639
aF82.86736390159881
aF82.87339742040264
aF82.87943049997388
aF82.8854631404084
aF82.8914953418021
aF82.89752710425083
aF82.90355842785037
aF82.90958931269651
aF82.915619758885
aF82.92164976651152
aF82.92767933567175
aF82.93370846646133
aF82.93973715897586
aF82.94576541331088
aF82.95179322956196
aF82.95782060782456
aF82.96384754819415
aF82.96987405076617
aF82.97590011563598
aF82.98192574289898
aF82.98795093265046
aF82.99397568498571
aF83.0
aF83.00602387778854
aF83.01204731844649
aF83.01807032206904
aF83.02409288875127
aF83.03011501858829
aF83.03613671167511
aF83.04215796810678
aF83.04817878797824
aF83.05419917138447
aF83.06021911842033
aF83.06623862918075
aF83.07225770376053
aF83.07827634225448
aF83.08429454475737
aF83.09031231136396
aF83.09632964216891
aF83.10234653726692
aF83.10836299675262
aF83.11437902072059
aF83.12039460926542
aF83.12640976248163
aF83.1324244804637
aF83.13843876330611
aF83.14445261110329
aF83.15046602394962
aF83.15647900193947
aF83.16249154516716
aF83.16850365372699
aF83.17451532771321
aF83.18052656722004
aF83.18653737234169
aF83.19254774317228
aF83.19855767980596
aF83.20456718233682
aF83.21057625085888
aF83.21658488546619
aF83.22259308625273
aF83.22860085331244
aF83.23460818673925
aF83.24061508662703
aF83.24662155306964
aF83.25262758616091
aF83.2586331859946
aF83.26463835266445
aF83.2706430862642
aF83.27664738688752
aF83.28265125462805
aF83.28865468957942
aF83.2946576918352
aF83.30066026148893
aF83.30666239863412
aF83.31266410336426
aF83.3186653757728
aF83.32466621595313
aF83.33066662399864
aF83.33666660000267
aF83.34266614405853
aF83.34866525625951
aF83.35466393669883
aF83.3606621854697
aF83.36666000266533
aF83.37265738837884
aF83.37865434270333
aF83.38465086573187
aF83.39064695755754
aF83.3966426182733
aF83.40263784797217
aF83.40863264674707
aF83.4146270146909
aF83.42062095189654
aF83.42661445845684
aF83.43260753446461
aF83.43860018001261
aF83.4445923951936
aF83.45058418010026
aF83.45657553482529
aF83.46256645946133
aF83.46855695410099
aF83.47454701883683
aF83.48053665376139
aF83.48652585896721
aF83.49251463454674
aF83.4985029805924
aF83.50449089719666
aF83.51047838445186
aF83.51646544245033
aF83.5224520712844
aF83.52843827104634
aF83.5344240418284
aF83.5404093837228
aF83.54639429682169
aF83.55237878121723
aF83.55836283700154
aF83.56434646426669
aF83.57032966310472
aF83.57631243360764
aF83.58229477586745
aF83.58827668997608
aF83.59425817602546
aF83.60023923410746
aF83.60621986431393
aF83.61220006673668
aF83.6181798414675
aF83.62415918859813
aF83.6301381082203
aF83.63611660042568
aF83.64209466530593
aF83.64807230295268
aF83.65404951345751
aF83.66002629691195
aF83.66600265340756
aF83.6719785830358
aF83.67795408588812
aF83.68392916205596
aF83.68990381163071
aF83.69587803470371
aF83.70185183136631
aF83.70782520170978
aF83.7137981458254
aF83.71977066380438
aF83.72574275573791
aF83.73171442171717
aF83.73768566183328
aF83.74365647617735
aF83.74962686484042
aF83.75559682791354
aF83.7615663654877
aF83.76753547765387
aF83.773504164503
aF83.77947242612596
aF83.78544026261365
aF83.79140767405688
aF83.7973746605465
aF83.80334122217323
aF83.80930735902786
aF83.81527307120105
aF83.8212383587835
aF83.82720322186587
aF83.83316766053875
aF83.83913167489273
aF83.84509526501833
aF83.85105843100611
aF83.85702117294652
aF83.86298349093002
aF83.86894538504703
aF83.87490685538792
aF83.88086790204308
aF83.8868285251028
aF83.89278872465738
aF83.89874850079708
aF83.90470785361212
aF83.91066678319271
aF83.916625289629
aF83.92258337301111
aF83.92854103342914
aF83.93449827097318
aF83.94045508573325
aF83.94641147779933
aF83.95236744726142
aF83.95832299420945
aF83.96427811873333
aF83.97023282092292
aF83.97618710086806
aF83.98214095865859
aF83.98809439438426
aF83.99404740813482
aF84.0
aF84.00595217006948
aF84.01190391843289
aF84.01785524517987
aF84.02380615040002
aF84.02975663418287
aF84.03570669661795
aF84.04165633779478
aF84.04760555780278
aF84.0535543567314
aF84.05950273467003
aF84.06545069170807
aF84.07139822793481
aF84.07734534343957
aF84.08329203831163
aF84.08923831264022
aF84.09518416651456
aF84.10112960002381
aF84.10707461325711
aF84.1130192063036
aF84.11896337925236
aF84.12490713219242
aF84.13085046521282
aF84.13679337840253
aF84.14273587185052
aF84.1486779456457
aF84.15461959987698
aF84.16056083463323
aF84.16650165000326
aF84.17244204607586
aF84.17838202293983
aF84.1843215806839
aF84.19026071939675
aF84.19619943916709
aF84.20213774008353
aF84.20807562223472
aF84.2140130857092
aF84.21995013059554
aF84.22588675698226
aF84.23182296495784
aF84.23775875461075
aF84.2436941260294
aF84.24962907930218
aF84.25556361451747
aF84.26149773176358
aF84.26743143112884
aF84.27336471270148
aF84.27929757656977
aF84.2852300228219
aF84.29116205154607
aF84.29709366283039
aF84.303024856763
aF84.30895563343196
aF84.31488599292535
aF84.32081593533118
aF84.32674546073743
aF84.33267456923205
aF84.33860326090301
aF84.34453153583817
aF84.35045939412541
aF84.35638683585256
aF84.36231386110744
aF84.3682404699778
aF84.3741666625514
aF84.38009243891595
aF84.38601779915912
aF84.39194274336857
aF84.39786727163192
aF84.40379138403677
aF84.40971508067067
aF84.41563836162112
aF84.42156122697565
aF84.42748367682174
aF84.43340571124678
aF84.4393273303382
aF84.44524853418338
aF84.45116932286965
aF84.45708969648433
aF84.4630096551147
aF84.46892919884802
aF84.4748483277715
aF84.48076704197234
aF84.4866853415377
aF84.49260322655469
aF84.49852069711044
aF84.50443775329198
aF84.5103543951864
aF84.51627062288065
aF84.52218643646175
aF84.52810183601665
aF84.53401682163222
aF84.53993139339539
aF84.545845551393
aF84.55175929571188
aF84.55767262643882
aF84.56358554366058
aF84.5694980474639
aF84.57541013793548
aF84.581321815162
aF84.5872330792301
aF84.5931439302264
aF84.59905436823747
aF84.60496439334987
aF84.61087400565013
aF84.61678320522472
aF84.62269199216011
aF84.62860036654276
aF84.63450832845902
aF84.64041587799531
aF84.64632301523794
aF84.65222974027323
aF84.65813605318746
aF84.6640419540669
aF84.66994744299774
aF84.67585252006619
aF84.6817571853584
aF84.68766143896052
aF84.69356528095862
aF84.6994687114388
aF84.70537173048709
aF84.71127433818948
aF84.71717653463199
aF84.72307831990054
aF84.72897969408106
aF84.73488065725944
aF84.74078120952154
aF84.74668135095321
aF84.75258108164022
aF84.75848040166836
aF84.76437931112338
aF84.77027781009096
aF84.77617589865682
aF84.78207357690657
aF84.78797084492588
aF84.7938677028003
aF84.79976415061542
aF84.80566018845676
aF84.81155581640984
aF84.8174510345601
aF84.823345842993
aF84.82924024179398
aF84.8351342310484
aF84.84102781084161
aF84.84692098125895
aF84.8528137423857
aF84.85870609430714
aF84.86459803710851
aF84.870489570875
aF84.87638069569178
aF84.88227141164403
aF84.88816171881683
aF84.8940516172953
aF84.8999411071645
aF84.90583018850944
aF84.91171886141512
aF84.91760712596653
aF84.92349498224858
aF84.92938243034621
aF84.9352694703443
aF84.94115610232768
aF84.94704232638121
aF84.95292814258964
aF84.95881355103778
aF84.96469855181033
aF84.970583144992
aF84.97646733066749
aF84.98235110892143
aF84.98823447983844
aF84.99411744350311
aF85.0
aF85.00588214941364
aF85.01176389182852
aF85.01764522732913
aF85.0235261559999
aF85.02940667792525
aF85.03528679318957
aF85.0411665018772
aF85.04704580407247
aF85.05292469985967
aF85.05880318932309
aF85.06468127254695
aF85.07055894961546
aF85.07643622061282
aF85.08231308562314
aF85.0881895447306
aF85.09406559801923
aF85.09994124557313
aF85.10581648747635
aF85.11169132381285
aF85.11756575466664
aF85.12343978012167
aF85.12931340026184
aF85.13518661517105
aF85.14105942493316
aF85.14693182963201
aF85.15280382935138
aF85.15867542417507
aF85.16454661418682
aF85.17041739947034
aF85.17628778010932
aF85.18215775618742
aF85.18802732778826
aF85.19389649499546
aF85.19976525789258
aF85.20563361656318
aF85.21150157109074
aF85.21736912155878
aF85.22323626805074
aF85.22910301065006
aF85.23496934944014
aF85.24083528450434
aF85.246700815926
aF85.25256594378845
aF85.25843066817498
aF85.26429498916883
aF85.27015890685323
aF85.27602242131137
aF85.28188553262645
aF85.28774824088158
aF85.2936105461599
aF85.29947244854449
aF85.30533394811839
aF85.31119504496465
aF85.31705573916625
aF85.32291603080617
aF85.32877591996736
aF85.33463540673272
aF85.34049449118513
aF85.34635317340748
aF85.35221145348257
aF85.3580693314932
aF85.36392680752216
aF85.36978388165218
aF85.37564055396598
aF85.38149682454625
aF85.38735269347563
aF85.39320816083678
aF85.39906322671227
aF85.4049178911847
aF85.4107721543366
aF85.41662601625049
aF85.42247947700886
aF85.42833253669417
aF85.43418519538885
aF85.44003745317531
aF85.44588931013593
aF85.45174076635303
aF85.45759182190895
aF85.46344247688599
aF85.4692927313664
aF85.47514258543241
aF85.48099203916622
aF85.48684109265004
aF85.492689745966
aF85.49853799919622
aF85.5043858524228
aF85.5102333057278
aF85.51608035919327
aF85.5219270129012
aF85.5277732669336
aF85.53361912137238
aF85.53946457629952
aF85.54530963179688
aF85.55115428794635
aF85.55699854482975
aF85.56284240252891
aF85.56868586112562
aF85.57452892070164
aF85.58037158133867
aF85.58621384311844
aF85.59205570612264
aF85.59789717043287
aF85.60373823613078
aF85.60957890329796
aF85.61541917201598
aF85.62125904236635
aF85.62709851443059
aF85.63293758829018
aF85.63877626402656
aF85.64461454172118
aF85.65045242145543
aF85.65628990331066
aF85.66212698736823
aF85.66796367370944
aF85.67379996241559
aF85.67963585356792
aF85.68547134724766
aF85.69130644353604
aF85.6971411425142
aF85.70297544426332
aF85.70880934886448
aF85.71464285639881
aF85.72047596694736
aF85.72630868059116
aF85.73214099741124
aF85.73797291748855
aF85.74380444090407
aF85.74963556773871
aF85.75546629807339
aF85.76129663198896
aF85.76712656956627
aF85.77295611088614
aF85.77878525602937
aF85.78461400507669
aF85.79044235810886
aF85.7962703152066
aF85.80209787645055
aF85.8079250419214
aF85.81375181169973
aF85.81957818586619
aF85.82540416450132
aF85.83122974768565
aF85.83705493549974
aF85.84287972802403
aF85.84870412533901
aF85.85452812752511
aF85.86035173466273
aF85.86617494683223
aF85.871997764114
aF85.87782018658834
aF85.88364221433555
aF85.8894638474359
aF85.89528508596965
aF85.901105930017
aF85.90692637965812
aF85.9127464349732
aF85.91856609604235
aF85.92438536294571
aF85.93020423576334
aF85.93602271457529
aF85.94184079946159
aF85.94765849050223
aF85.9534757877772
aF85.95929269136641
aF85.96510920134982
aF85.9709253178073
aF85.97674104081871
aF85.98255637046388
aF85.98837130682264
aF85.99418584997477
aF86.0
aF86.00581375697809
aF86.0116271209887
aF86.01744009211156
aF86.02325267042627
aF86.02906485601247
aF86.03487664894976
aF86.0406880493177
aF86.04649905719582
aF86.05230967266364
aF86.05811989580066
aF86.06392972668631
aF86.06973916540005
aF86.07554821202127
aF86.08135686662938
aF86.08716512930368
aF86.09297300012354
aF86.09878047916823
aF86.10458756651704
aF86.1103942622492
aF86.11620056644394
aF86.12200647918046
aF86.1278120005379
aF86.13361713059541
aF86.13942186943211
aF86.14522621712709
aF86.15103017375938
aF86.15683373940804
aF86.16263691415206
aF86.16843969807043
aF86.17424209124209
aF86.18004409374598
aF86.18584570566097
aF86.19164692706596
aF86.1974477580398
aF86.20324819866129
aF86.20904824900923
aF86.21484790916237
aF86.22064717919949
aF86.22644605919926
aF86.23224454924039
aF86.23804264940155
aF86.24384035976135
aF86.24963768039841
aF86.2554346113913
aF86.26123115281858
aF86.2670273047588
aF86.27282306729043
aF86.27861844049197
aF86.28441342444185
aF86.2902080192185
aF86.29600222490032
aF86.30179604156567
aF86.3075894692929
aF86.31338250816034
aF86.31917515824627
aF86.32496741962895
aF86.33075929238663
aF86.3365507765975
aF86.34234187233979
aF86.34813257969161
aF86.35392289873113
aF86.35971282953643
aF86.36550237218562
aF86.37129152675674
aF86.37708029332781
aF86.38286867197685
aF86.38865666278183
aF86.39444426582071
aF86.40023148117139
aF86.4060183089118
aF86.41180474911978
aF86.4175908018732
aF86.42337646724988
aF86.4291617453276
aF86.43494663618414
aF86.44073113989724
aF86.44651525654461
aF86.45229898620394
aF86.45808232895291
aF86.46386528486914
aF86.46964785403026
aF86.47543003651384
aF86.48121183239745
aF86.48699324175861
aF86.49277426467485
aF86.49855490122364
aF86.50433515148244
aF86.51011501552867
aF86.51589449343976
aF86.52167358529307
aF86.52745229116596
aF86.53323061113575
aF86.53900854527974
aF86.54478609367523
aF86.55056325639943
aF86.55634003352961
aF86.56211642514293
aF86.5678924313166
aF86.57366805212772
aF86.57944328765345
aF86.58521813797087
aF86.59099260315706
aF86.59676668328905
aF86.60254037844386
aF86.6083136886985
aF86.61408661412992
aF86.61985915481507
aF86.62563131083085
aF86.63140308225418
aF86.6371744691619
aF86.64294547163087
aF86.64871608973787
aF86.65448632355972
aF86.66025617317318
aF86.66602563865497
aF86.6717947200818
aF86.67756341753038
aF86.68333173107735
aF86.68909966079934
aF86.69486720677297
aF86.70063436907483
aF86.70640114778148
aF86.71216754296942
aF86.7179335547152
aF86.72369918309528
aF86.7294644281861
aF86.73522929006414
aF86.74099376880577
aF86.74675786448736
aF86.75252157718529
aF86.75828490697589
aF86.76404785393545
aF86.76981041814025
aF86.77557259966655
aF86.78133439859057
aF86.78709581498853
aF86.7928568489366
aF86.79861750051091
aF86.80437776978762
aF86.81013765684283
aF86.81589716175259
aF86.82165628459296
aF86.82741502543998
aF86.83317338436964
aF86.83893136145792
aF86.84468895678077
aF86.85044617041412
aF86.85620300243386
aF86.86195945291587
aF86.86771552193599
aF86.87347120957007
aF86.87922651589389
aF86.88498144098322
aF86.89073598491383
aF86.89649014776144
aF86.90224392960172
aF86.90799733051038
aF86.91375035056306
aF86.91950298983537
aF86.92525524840292
aF86.93100712634129
aF86.93675862372602
aF86.94250974063263
aF86.94826047713663
aF86.95401083331349
aF86.95976080923866
aF86.96551040498757
aF86.97125962063559
aF86.97700845625813
aF86.98275691193054
aF86.98850498772812
aF86.99425268372619
aF87.0
aF87.00574693662483
aF87.01149349367589
aF87.01723967122837
aF87.02298546935747
aF87.02873088813831
aF87.03447592764606
aF87.04022058795577
aF87.04596486914255
aF87.05170877128145
aF87.05745229444749
aF87.06319543871567
aF87.06893820416096
aF87.07468059085832
aF87.08042259888269
aF87.08616422830896
aF87.09190547921202
aF87.0976463516667
aF87.10338684574785
aF87.10912696153027
aF87.11486669908874
aF87.12060605849801
aF87.12634503983281
aF87.13208364316786
aF87.13782186857783
aF87.14355971613737
aF87.14929718592113
aF87.1550342780037
aF87.16077099245967
aF87.16650732936361
aF87.17224328879004
aF87.17797887081348
aF87.18371407550839
aF87.18944890294927
aF87.19518335321051
aF87.20091742636656
aF87.20665112249179
aF87.21238444166057
aF87.21811738394725
aF87.2238499494261
aF87.22958213817145
aF87.23531395025755
aF87.24104538575865
aF87.24677644474895
aF87.25250712730265
aF87.25823743349392
aF87.2639673633969
aF87.26969691708571
aF87.27542609463445
aF87.28115489611719
aF87.28688332160795
aF87.29261137118078
aF87.29833904490967
aF87.3040663428686
aF87.30979326513149
aF87.31551981177229
aF87.32124598286491
aF87.3269717784832
aF87.33269719870101
aF87.33842224359219
aF87.34414691323055
aF87.34987120768983
aF87.35559512704381
aF87.36131867136622
aF87.36704184073076
aF87.37276463521113
aF87.37848705488096
aF87.38420909981392
aF87.38993077008358
aF87.39565206576354
aF87.40137298692738
aF87.40709353364863
aF87.41281370600079
aF87.41853350405736
aF87.42425292789181
aF87.42997197757758
aF87.43569065318808
aF87.4414089547967
aF87.44712688247682
aF87.45284443630179
aF87.45856161634491
aF87.46427842267951
aF87.46999485537883
aF87.47571091451616
aF87.48142660016468
aF87.48714191239762
aF87.49285685128815
aF87.49857141690943
aF87.50428560933459
aF87.50999942863673
aF87.51571287488893
aF87.52142594816426
aF87.52713864853574
aF87.5328509760764
aF87.53856293085921
aF87.54427451295716
aF87.54998572244315
aF87.55569655939013
aF87.56140702387097
aF87.56711711595854
aF87.5728268357257
aF87.57853618324526
aF87.58424515859002
aF87.58995376183276
aF87.5956619930462
aF87.60136985230311
aF87.60707733967615
aF87.61278445523804
aF87.6184911990614
aF87.62419757121887
aF87.62990357178307
aF87.63560920082658
aF87.64131445842195
aF87.64701934464172
aF87.6527238595584
aF87.65842800324451
aF87.66413177577246
aF87.66983517721475
aF87.67553820764375
aF87.68124086713189
aF87.68694315575154
aF87.69264507357501
aF87.69834662067467
aF87.7040477971228
aF87.70974860299168
aF87.71544903835355
aF87.72114910328068
aF87.72684879784524
aF87.73254812211943
aF87.7382470761754
aF87.74394566008529
aF87.74964387392122
aF87.75534171775527
aF87.76103919165953
aF87.76673629570601
aF87.77243302996676
aF87.77812939451375
aF87.78382538941898
aF87.78952101475437
aF87.79521627059188
aF87.80091115700337
aF87.80660567406076
aF87.8122998218359
aF87.8179936004006
aF87.82368700982668
aF87.82938005018595
aF87.83507272155013
aF87.840765023991
aF87.84645695758026
aF87.8521485223896
aF87.8578397184907
aF87.86353054595519
aF87.86922100485471
aF87.87491109526086
aF87.88060081724521
aF87.88629017087932
aF87.89197915623473
aF87.89766777338293
aF87.90335602239541
aF87.90904390334364
aF87.91473141629905
aF87.92041856133307
aF87.92610533851708
aF87.93179174792243
aF87.9374777896205
aF87.94316346368261
aF87.94884877018005
aF87.95453370918409
aF87.960218280766
aF87.96590248499699
aF87.9715863219483
aF87.97726979169109
aF87.98295289429652
aF87.98863562983574
aF87.99431799837987
aF88.0
aF88.0056816347672
aF88.01136290275251
aF88.01704380402695
aF88.02272433866155
aF88.02840450672726
aF88.03408430829505
aF88.03976374343584
aF88.04544281222056
aF88.05112151472007
aF88.05679985100527
aF88.06247782114696
aF88.06815542521599
aF88.07383266328314
aF88.07950953541919
aF88.08518604169488
aF88.09086218218096
aF88.09653795694811
aF88.10221336606703
aF88.10788840960836
aF88.11356308764276
aF88.11923740024082
aF88.12491134747314
aF88.13058492941029
aF88.13625814612281
aF88.14193099768123
aF88.14760348415605
aF88.15327560561774
aF88.15894736213676
aF88.16461875378354
aF88.17028978062848
aF88.175960442742
aF88.18163074019441
aF88.1873006730561
aF88.19297024139736
aF88.19863944528849
aF88.20430828479978
aF88.20997676000147
aF88.21564487096379
aF88.22131261775694
aF88.2269800004511
aF88.23264701911646
aF88.23831367382311
aF88.24397996464121
aF88.24964589164084
aF88.25531145489205
aF88.26097665446491
aF88.26664149042944
aF88.27230596285564
aF88.2779700718135
aF88.28363381737297
aF88.28929719960398
aF88.29496021857646
aF88.30062287436029
aF88.30628516702534
aF88.31194709664146
aF88.31760866327846
aF88.32326986700618
aF88.32893070789434
aF88.33459118601274
aF88.34025130143111
aF88.34591105421914
aF88.35157044444654
aF88.35722947218298
aF88.36288813749809
aF88.3685464404615
aF88.3742043811428
aF88.37986195961159
aF88.38551917593742
aF88.3911760301898
aF88.39683252243827
aF88.40248865275231
aF88.40814442120137
aF88.41379982785493
aF88.41945487278238
aF88.42510955605314
aF88.43076387773658
aF88.43641783790206
aF88.4420714366189
aF88.44772467395643
aF88.45337754998393
aF88.45903006477066
aF88.46468221838589
aF88.47033401089882
aF88.47598544237866
aF88.48163651289458
aF88.48728722251576
aF88.4929375713113
aF88.49858755935034
aF88.50423718670197
aF88.50988645343524
aF88.51553535961922
aF88.52118390532291
aF88.52683209061533
aF88.53247991556545
aF88.53812738024223
aF88.54377448471462
aF88.54942122905152
aF88.55506761332182
aF88.5607136375944
aF88.56635930193812
aF88.57200460642177
aF88.57764955111419
aF88.58329413608415
aF88.58893836140041
aF88.5945822271317
aF88.60022573334675
aF88.60586888011426
aF88.61151166750288
aF88.61715409558128
aF88.6227961644181
aF88.62843787408192
aF88.63407922464135
aF88.63972021616495
aF88.64536084872124
aF88.65100112237876
aF88.656641037206
aF88.66228059327146
aF88.66791979064357
aF88.67355862939075
aF88.67919710958145
aF88.68483523128404
aF88.6904729945669
aF88.69611039949835
aF88.70174744614674
aF88.70738413458037
aF88.7130204648675
aF88.71865643707642
aF88.72429205127534
aF88.72992730753249
aF88.73556220591607
aF88.74119674649424
aF88.74683092933516
aF88.75246475450696
aF88.75809822207775
aF88.7637313321156
aF88.76936408468859
aF88.77499647986475
aF88.78062851771213
aF88.7862601982987
aF88.79189152169245
aF88.79752248796134
aF88.80315309717331
aF88.80878334939625
aF88.81441324469807
aF88.82004278314665
aF88.82567196480981
aF88.8313007897554
aF88.83692925805124
aF88.84255736976509
aF88.84818512496471
aF88.85381252371785
aF88.85943956609225
aF88.86506625215557
aF88.87069258197553
aF88.87631855561975
aF88.88194417315589
aF88.88756943465155
aF88.89319434017432
aF88.89881888979178
aF88.90444308357148
aF88.91006692158093
aF88.91569040388767
aF88.92131353055915
aF88.92693630166283
aF88.9325587172662
aF88.93818077743664
aF88.94380248224157
aF88.94942383174835
aF88.95504482602435
aF88.9606654651369
aF88.96628574915331
aF88.9719056781409
aF88.97752525216691
aF88.9831444712986
aF88.98876333560322
aF88.99438184514796
aF89.0
aF89.00561780022652
aF89.01123524589467
aF89.01685233707154
aF89.02246907382428
aF89.02808545621994
aF89.03370148432559
aF89.03931715820826
aF89.04493247793498
aF89.05054744357274
aF89.05616205518852
aF89.06177631284928
aF89.06739021662193
aF89.07300376657341
aF89.07861696277058
aF89.08422980528034
aF89.08984229416954
aF89.09545442950498
aF89.1010662113535
aF89.10667763978185
aF89.11228871485683
aF89.11789943664516
aF89.12350980521357
aF89.12911982062877
aF89.13472948295743
aF89.1403387922662
aF89.14594774862175
aF89.15155635209068
aF89.15716460273958
aF89.16277250063504
aF89.1683800458436
aF89.17398723843182
aF89.17959407846618
aF89.1852005660132
aF89.19080670113932
aF89.19641248391103
aF89.20201791439474
aF89.20762299265685
aF89.21322771876378
aF89.21883209278185
aF89.22443611477743
aF89.23003978481687
aF89.23564310296643
aF89.24124606929242
aF89.2468486838611
aF89.25245094673872
aF89.25805285799147
aF89.26365441768559
aF89.26925562588724
aF89.27485648266257
aF89.28045698807774
aF89.28605714219886
aF89.29165694509202
aF89.2972563968233
aF89.30285549745876
aF89.30845424706443
aF89.31405264570633
aF89.31965069345043
aF89.32524839036273
aF89.33084573650918
aF89.3364427319557
aF89.3420393767682
aF89.34763567101258
aF89.3532316147547
aF89.35882720806042
aF89.36442245099556
aF89.37001734362593
aF89.37561188601732
aF89.38120607823548
aF89.38679992034618
aF89.39239341241513
aF89.39798655450804
aF89.40357934669059
aF89.40917178902845
aF89.41476388158725
aF89.42035562443263
aF89.42594701763018
aF89.43153806124549
aF89.4371287553441
aF89.44271909999159
aF89.44830909525345
aF89.45389874119518
aF89.45948803788227
aF89.46507698538016
aF89.47066558375433
aF89.47625383307015
aF89.48184173339304
aF89.48742928478838
aF89.49301648732151
aF89.49860334105779
aF89.50418984606252
aF89.50977600240098
aF89.51536181013849
aF89.52094726934027
aF89.52653238007156
aF89.53211714239757
aF89.5377015563835
aF89.54328562209453
aF89.5488693395958
aF89.55445270895244
aF89.56003573022959
aF89.56561840349231
aF89.57120072880568
aF89.57678270623477
aF89.58236433584459
aF89.58794561770016
aF89.59352655186646
aF89.59910713840847
aF89.60468737739114
aF89.61026726887941
aF89.61584681293817
aF89.62142600963232
aF89.62700485902673
aF89.63258336118624
aF89.63816151617569
aF89.64373932405988
aF89.6493167849036
aF89.65489389877163
aF89.66047066572872
aF89.66604708583958
aF89.67162315916892
aF89.67719888578144
aF89.6827742657418
aF89.68834929911465
aF89.69392398596462
aF89.69949832635632
aF89.70507232035433
aF89.71064596802321
aF89.71621926942753
aF89.7217922246318
aF89.72736483370053
aF89.73293709669822
aF89.73850901368932
aF89.74408058473828
aF89.74965180990955
aF89.7552226892675
aF89.76079322287654
aF89.76636341080105
aF89.77193325310535
aF89.77750274985377
aF89.78307190111062
aF89.78864070694021
aF89.79420916740678
aF89.7997772825746
aF89.80534505250787
aF89.81091247727082
aF89.81647955692763
aF89.82204629154248
aF89.8276126811795
aF89.83317872590283
aF89.83874442577657
aF89.8443097808648
aF89.84987479123163
aF89.85543945694106
aF89.86100377805714
aF89.86656775464388
aF89.87213138676528
aF89.87769467448528
aF89.88325761786786
aF89.88882021697692
aF89.89438247187641
aF89.89994438263018
aF89.90550594930212
aF89.91106717195609
aF89.9166280506559
aF89.92218858546538
aF89.92774877644831
aF89.93330862366847
aF89.9388681271896
aF89.94442728707543
aF89.9499861033897
aF89.95554457619608
aF89.96110270555825
aF89.96666049153987
aF89.97221793420455
aF89.97777503361594
aF89.9833317898376
aF89.98888820293314
aF89.99444427296609
aF90.0
aF90.00555538409837
aF90.01111042532472
aF90.0166651237425
aF90.0222194794152
aF90.02777349240623
aF90.033327162779
aF90.03888049059695
aF90.04443347592343
aF90.0499861188218
aF90.05553841935541
aF90.06109037758759
aF90.06664199358161
aF90.07219326740079
aF90.07774419910837
aF90.08329478876757
aF90.08884503644167
aF90.09439494219383
aF90.09994450608724
aF90.10549372818508
aF90.11104260855048
aF90.11659114724658
aF90.12213934433647
aF90.12768719988325
aF90.13323471394999
aF90.13878188659973
aF90.1443287178955
aF90.14987520790032
aF90.15542135667715
aF90.160967164289
aF90.1665126307988
aF90.17205775626948
aF90.17760254076397
aF90.18314698434514
aF90.18869108707588
aF90.19423484901904
aF90.19977827023745
aF90.20532135079394
aF90.21086409075129
aF90.21640649017229
aF90.22194854911969
aF90.22749026765624
aF90.23303164584463
aF90.2385726837476
aF90.24411338142782
aF90.24965373894794
aF90.2551937563706
aF90.26073343375845
aF90.26627277117406
aF90.27181176868004
aF90.27735042633894
aF90.28288874421332
aF90.2884267223657
aF90.29396436085858
aF90.29950165975447
aF90.30503861911582
aF90.31057523900509
aF90.31611151948472
aF90.3216474606171
aF90.32718306246464
aF90.33271832508971
aF90.33825324855468
aF90.34378783292186
aF90.34932207825358
aF90.35485598461214
aF90.36038955205981
aF90.36592278065886
aF90.37145567047152
aF90.37698822156003
aF90.38252043398657
aF90.38805230781334
aF90.39358384310249
aF90.39911503991618
aF90.40464589831653
aF90.41017641836565
aF90.41570660012562
aF90.42123644365851
aF90.4267659490264
aF90.43229511629129
aF90.43782394551519
aF90.44335243676011
aF90.44888059008801
aF90.45440840556087
aF90.4599358832406
aF90.46546302318913
aF90.47098982546837
aF90.47651629014017
aF90.48204241726643
aF90.48756820690895
aF90.49309365912958
aF90.49861877399013
aF90.50414355155237
aF90.50966799187809
aF90.515192095029
aF90.52071586106685
aF90.52623929005335
aF90.5317623820502
aF90.53728513711906
aF90.54280755532159
aF90.54832963671942
aF90.55385138137417
aF90.55937278934744
aF90.56489386070079
aF90.5704145954958
aF90.57593499379402
aF90.58145505565695
aF90.5869747811461
aF90.59249417032296
aF90.598013223249
aF90.60353193998566
aF90.60905032059435
aF90.61456836513652
aF90.62008607367353
aF90.62560344626678
aF90.6311204829776
aF90.63663718386732
aF90.64215354899729
aF90.64766957842876
aF90.65318527222306
aF90.65870063044142
aF90.66421565314509
aF90.6697303403953
aF90.67524469225324
aF90.68075870878012
aF90.68627239003708
aF90.69178573608527
aF90.69729874698585
aF90.7028114227999
aF90.70832376358854
aF90.71383576941281
aF90.7193474403338
aF90.72485877641255
aF90.73036977771004
aF90.7358804442873
aF90.74139077620532
aF90.74690077352504
aF90.75241043630741
aF90.75791976461338
aF90.76342875850384
aF90.76893741803966
aF90.77444574328173
aF90.77995373429091
aF90.78546139112804
aF90.79096871385391
aF90.79647570252934
aF90.80198235721508
aF90.80748867797193
aF90.8129946648606
aF90.81850031794183
aF90.82400563727631
aF90.82951062292474
aF90.83501527494779
aF90.84051959340611
aF90.84602357836033
aF90.85152722987104
aF90.85703054799887
aF90.86253353280438
aF90.86803618434813
aF90.87353850269065
aF90.87904048789248
aF90.8845421400141
aF90.89004345911603
aF90.89554444525871
aF90.90104509850258
aF90.9065454189081
aF90.91204540653565
aF90.91754506144565
aF90.92304438369845
aF90.92854337335444
aF90.93404203047393
aF90.93954035511726
aF90.9450383473447
aF90.95053600721658
aF90.95603333479313
aF90.96153033013462
aF90.96702699330126
aF90.97252332435328
aF90.97801932335085
aF90.98351499035417
aF90.98901032542337
aF90.9945053286186
aF91.0
aF91.00549433962765
aF91.01098834756164
aF91.01648202386203
aF91.02197536858887
aF91.02746838180221
aF91.03296106356203
aF91.03845341392834
aF91.04394543296111
aF91.0494371207203
aF91.05492847726585
aF91.06041950265768
aF91.0659101969557
aF91.07140056021979
aF91.0768905925098
aF91.0823802938856
aF91.08786966440702
aF91.09335870413386
aF91.09884741312592
aF91.10433579144299
aF91.10982383914481
aF91.11531155629113
aF91.12079894294168
aF91.12628599915614
aF91.13177272499422
aF91.13725912051558
aF91.14274518577987
aF91.14823092084673
aF91.15371632577578
aF91.15920140062659
aF91.16468614545876
aF91.17017056033185
aF91.1756546453054
aF91.18113840043894
aF91.18662182579197
aF91.19210492142398
aF91.19758768739445
aF91.20307012376283
aF91.20855223058855
aF91.21403400793103
aF91.21951545584969
aF91.22499657440389
aF91.23047736365298
aF91.23595782365635
aF91.2414379544733
aF91.24691775616314
aF91.25239722878517
aF91.25787637239867
aF91.2633551870629
aF91.26883367283708
aF91.27431182978046
aF91.27978965795221
aF91.28526715741155
aF91.29074432821763
aF91.29622117042962
aF91.30169768410661
aF91.30717386930777
aF91.31264972609216
aF91.31812525451889
aF91.32360045464699
aF91.32907532653553
aF91.33454987024352
aF91.34002408582998
aF91.34549797335389
aF91.35097153287424
aF91.35644476444998
aF91.36191766814004
aF91.36739024400336
aF91.37286249209882
aF91.37833441248533
aF91.38380600522173
aF91.3892772703669
aF91.39474820797966
aF91.40021881811882
aF91.40568910084318
aF91.41115905621152
aF91.4166286842826
aF91.42209798511517
aF91.42756695876797
aF91.43303560529968
aF91.43850392476902
aF91.44397191723465
aF91.44943958275523
aF91.45490692138941
aF91.4603739331958
aF91.46584061823299
aF91.47130697655959
aF91.47677300823418
aF91.48223871331527
aF91.48770409186143
aF91.49316914393118
aF91.49863386958299
aF91.50409826887537
aF91.50956234186677
aF91.51502608861563
aF91.52048950918041
aF91.52595260361949
aF91.53141537199127
aF91.53687781435414
aF91.54233993076646
aF91.54780172128658
aF91.55326318597278
aF91.55872432488343
aF91.56418513807678
aF91.56964562561112
aF91.57510578754469
aF91.58056562393574
aF91.58602513484249
aF91.59148432032315
aF91.59694318043589
aF91.60240171523888
aF91.60785992479029
aF91.61331780914826
aF91.61877536837086
aF91.62423260251624
aF91.62968951164245
aF91.63514609580758
aF91.64060235506966
aF91.64605828948673
aF91.6515138991168
aF91.65696918401787
aF91.6624241442479
aF91.66787877986486
aF91.67333309092672
aF91.67878707749138
aF91.68424073961675
aF91.68969407736073
aF91.6951470907812
aF91.70059977993601
aF91.706052144883
aF91.71150418568
aF91.71695590238481
aF91.72240729505522
aF91.72785836374901
aF91.73330910852393
aF91.73875952943771
aF91.7442096265481
aF91.74965939991276
aF91.7551088495894
aF91.76055797563569
aF91.76600677810929
aF91.77145525706781
aF91.7769034125689
aF91.78235124467012
aF91.7877987534291
aF91.79324593890337
aF91.7986928011505
aF91.804139340228
aF91.80958555619343
aF91.81503144910424
aF91.82047701901793
aF91.82592226599198
aF91.8313671900838
aF91.83681179135085
aF91.84225606985055
aF91.84770002564028
aF91.85314365877741
aF91.85858696931932
aF91.86402995732334
aF91.86947262284681
aF91.87491496594704
aF91.88035698668132
aF91.88579868510693
aF91.89124006128114
aF91.89668111526117
aF91.90212184710427
aF91.90756225686764
aF91.91300234460846
aF91.91844211038392
aF91.92388155425118
aF91.92932067626738
aF91.93475947648963
aF91.94019795497506
aF91.94563611178074
aF91.95107394696377
aF91.9565114605812
aF91.96194865269004
aF91.96738552334735
aF91.97282207261013
aF91.97825830053534
aF91.98369420718001
aF91.98912979260103
aF91.9945650568554
aF92.0
aF92.00543462209176
aF92.01086892318754
aF92.01630290334425
aF92.02173656261873
aF92.02716990106781
aF92.03260291874831
aF92.03803561571705
aF92.04346799203081
aF92.04890004774636
aF92.05433178292046
aF92.05976319760984
aF92.06519429187124
aF92.07062506576133
aF92.07605551933683
aF92.08148565265441
aF92.0869154657707
aF92.09234495874236
aF92.09777413162601
aF92.10320298447823
aF92.10863151735563
aF92.11405973031478
aF92.11948762341224
aF92.12491519670452
aF92.13034245024816
aF92.13576938409967
aF92.14119599831554
aF92.14662229295223
aF92.15204826806618
aF92.15747392371387
aF92.16289925995167
aF92.16832427683602
aF92.1737489744233
aF92.17917335276988
aF92.1845974119321
aF92.19002115196633
aF92.19544457292888
aF92.20086767487604
aF92.2062904578641
aF92.21171292194934
aF92.21713506718802
aF92.22255689363638
aF92.22797840135064
aF92.233399590387
aF92.23882046080165
aF92.24424101265076
aF92.2496612459905
aF92.25508116087698
aF92.26050075736637
aF92.26592003551474
aF92.27133899537819
aF92.27675763701279
aF92.28217596047462
aF92.2875939658197
aF92.29301165310405
aF92.29842902238369
aF92.30384607371461
aF92.30926280715278
aF92.31467922275417
aF92.32009532057471
aF92.32551110067033
aF92.33092656309694
aF92.33634170791044
aF92.3417565351667
aF92.34717104492157
aF92.35258523723091
aF92.35799911215054
aF92.36341266973628
aF92.36882591004391
aF92.37423883312923
aF92.37965143904798
aF92.38506372785592
aF92.39047569960877
aF92.39588735436226
aF92.40129869217208
aF92.40670971309389
aF92.41212041718337
aF92.41753080449618
aF92.42294087508793
aF92.42835062901426
aF92.43376006633075
aF92.43916918709297
aF92.44457799135652
aF92.44998647917694
aF92.45539465060976
aF92.46080250571049
aF92.46621004453465
aF92.4716172671377
aF92.47702417357513
aF92.4824307639024
aF92.48783703817492
aF92.49324299644812
aF92.49864863877742
aF92.50405396521819
aF92.50945897582582
aF92.51486367065564
aF92.52026804976302
aF92.52567211320326
aF92.53107586103168
aF92.53647929330357
aF92.5418824100742
aF92.54728521139883
aF92.5526876973327
aF92.55808986793105
aF92.56349172324907
aF92.56889326334198
aF92.57429448826494
aF92.57969539807311
aF92.58509599282165
aF92.59049627256569
aF92.59589623736032
aF92.60129588726068
aF92.6066952223218
aF92.61209424259879
aF92.61749294814668
aF92.62289133902051
aF92.62828941527529
aF92.63368717696602
aF92.63908462414771
aF92.6444817568753
aF92.64987857520376
aF92.65527507918802
aF92.66067126888301
aF92.66606714434361
aF92.67146270562476
aF92.67685795278129
aF92.68225288586807
aF92.68764750493995
aF92.69304181005174
aF92.69843580125827
aF92.70382947861431
aF92.70922284217467
aF92.71461589199407
aF92.72000862812729
aF92.72540105062906
aF92.73079315955407
aF92.73618495495704
aF92.74157643689264
aF92.74696760541555
aF92.7523584605804
aF92.75774900244184
aF92.76313923105448
aF92.76852914647294
aF92.7739187487518
aF92.77930803794561
aF92.78469701410896
aF92.79008567729636
aF92.79547402756236
aF92.80086206496145
aF92.80624978954812
aF92.81163720137685
aF92.81702430050211
aF92.82241108697835
aF92.82779756085996
aF92.83318372220141
aF92.83856957105705
aF92.84395510748128
aF92.84934033152847
aF92.85472524325297
aF92.86010984270911
aF92.8654941299512
aF92.87087810503355
aF92.87626176801045
aF92.88164511893618
aF92.88702815786498
aF92.89241088485109
aF92.89779329994873
aF92.90317540321213
aF92.90855719469548
aF92.91393867445294
aF92.91931984253867
aF92.92470069900683
aF92.93008124391154
aF92.93546147730693
aF92.94084139924708
aF92.94622100978609
aF92.951600308978
aF92.9569792968769
aF92.9623579735368
aF92.96773633901172
aF92.97311439335567
aF92.97849213662265
aF92.98386956886662
aF92.98924669014154
aF92.99462350050136
aF93.0
aF93.00537618869137
aF93.01075206662937
aF93.01612763386788
aF93.02150289046077
aF93.02687783646186
aF93.03225247192502
aF93.03762679690406
aF93.04300081145277
aF93.04837451562494
aF93.05374790947434
aF93.05912099305473
aF93.06449376641986
aF93.06986622962343
aF93.07523838271918
aF93.08061022576076
aF93.08598175880189
aF93.09135298189624
aF93.0967238950974
aF93.10209449845905
aF93.1074647920348
aF93.11283477587824
aF93.11820445004295
aF93.12357381458253
aF93.1289428695505
aF93.13431161500041
aF93.13968005098579
aF93.14504817756014
aF93.15041599477696
aF93.15578350268973
aF93.1611507013519
aF93.16651759081692
aF93.17188417113823
aF93.17725044236924
aF93.18261640456336
aF93.18798205777395
aF93.1933474020544
aF93.19871243745806
aF93.20407716403827
aF93.20944158184835
aF93.2148056909416
aF93.22016949137134
aF93.22553298319082
aF93.23089616645332
aF93.23625904121208
aF93.24162160752032
aF93.24698386543128
aF93.25234581499814
aF93.25770745627409
aF93.26306878931231
aF93.26842981416596
aF93.27379053088815
aF93.27915093953203
aF93.28451104015072
aF93.28987083279728
aF93.29523031752481
aF93.30058949438637
aF93.30594836343501
aF93.31130692472375
aF93.31666517830564
aF93.32202312423365
aF93.32738076256078
aF93.33273809334
aF93.33809511662427
aF93.34345183246653
aF93.34880824091971
aF93.35416434203673
aF93.35952013587045
aF93.36487562247379
aF93.3702308018996
aF93.37558567420072
aF93.38094023943002
aF93.38629449764028
aF93.39164844888434
aF93.39700209321497
aF93.40235543068493
aF93.40770846134703
aF93.41306118525397
aF93.41841360245849
aF93.4237657130133
aF93.42911751697112
aF93.43446901438462
aF93.43982020530648
aF93.44517108978933
aF93.45052166788584
aF93.4558719396486
aF93.46122190513026
aF93.46657156438339
aF93.47192091746055
aF93.47726996441435
aF93.4826187052973
aF93.48796714016194
aF93.49331526906082
aF93.4986630920464
aF93.5040106091712
aF93.50935782048768
aF93.5147047260483
aF93.5200513259055
aF93.52539762011173
aF93.53074360871938
aF93.53608929178085
aF93.54143466934853
aF93.5467797414748
aF93.552124508212
aF93.55746896961247
aF93.56281312572854
aF93.56815697661251
aF93.57350052231668
aF93.57884376289333
aF93.58418669839472
aF93.58952932887311
aF93.59487165438073
aF93.60021367496978
aF93.60555539069249
aF93.61089680160104
aF93.6162379077476
aF93.62157870918435
aF93.6269192059634
aF93.63225939813692
aF93.637599285757
aF93.64293886887575
aF93.64827814754524
aF93.65361712181756
aF93.65895579174476
aF93.66429415737889
aF93.66963221877195
aF93.67496997597597
aF93.68030742904295
aF93.68564457802486
aF93.69098142297368
aF93.69631796394135
aF93.70165420097983
aF93.70699013414101
aF93.71232576347681
aF93.71766108903914
aF93.72299611087985
aF93.72833082905083
aF93.73366524360391
aF93.73899935459093
aF93.74433316206373
aF93.74966666607408
aF93.75499986667377
aF93.76033276391462
aF93.76566535784833
aF93.7709976485267
aF93.77632963600144
aF93.78166132032425
aF93.78699270154684
aF93.7923237797209
aF93.79765455489812
aF93.80298502713013
aF93.8083151964686
aF93.81364506296512
aF93.81897462667133
aF93.82430388763883
aF93.8296328459192
aF93.83496150156401
aF93.84028985462481
aF93.84561790515315
aF93.85094565320053
aF93.85627309881849
aF93.86160024205851
aF93.8669270829721
aF93.87225362161068
aF93.87757985802574
aF93.8829057922687
aF93.888231424391
aF93.89355675444402
aF93.89888178247918
aF93.90420650854784
aF93.9095309327014
aF93.91485505499116
aF93.92017887546851
aF93.92550239418472
aF93.93082561119114
aF93.93614852653903
aF93.94147114027967
aF93.94679345246436
aF93.95211546314431
aF93.95743717237076
aF93.96275858019496
aF93.96807968666806
aF93.9734004918413
aF93.97872099576584
aF93.98404119849285
aF93.98936110007345
aF93.99468070055879
aF94.0
aF94.00531899844816
aF94.01063769595439
aF94.01595609256974
aF94.02127418834527
aF94.02659198333204
aF94.03190947758107
aF94.03722667114339
aF94.04254356406997
aF94.04786015641186
aF94.05317644821997
aF94.0584924395453
aF94.06380813043877
aF94.06912352095134
aF94.0744386111339
aF94.07975340103735
aF94.08506789071261
aF94.09038208021052
aF94.09569596958194
aF94.10100955887773
aF94.10632284814874
aF94.11163583744573
aF94.11694852681954
aF94.12226091632095
aF94.12757300600074
aF94.13288479590966
aF94.13819628609845
aF94.14350747661784
aF94.14881836751856
aF94.15412895885129
aF94.15943925066674
aF94.16474924301556
aF94.17005893594843
aF94.17536832951598
aF94.18067742376883
aF94.18598621875762
aF94.19129471453293
aF94.19660291114536
aF94.2019108086455
aF94.20721840708386
aF94.21252570651102
aF94.2178327069775
aF94.22313940853383
aF94.22844581123049
aF94.23375191511798
aF94.23905772024676
aF94.2443632266673
aF94.24966843443005
aF94.25497334358543
aF94.26027795418386
aF94.26558226627574
aF94.27088627991147
aF94.27618999514141
aF94.28149341201592
aF94.28679653058533
aF94.29209935090002
aF94.29740187301027
aF94.30270409696638
aF94.30800602281866
aF94.31330765061736
aF94.31860898041276
aF94.32391001225511
aF94.32921074619463
aF94.33451118228153
aF94.33981132056604
aF94.34511116109833
aF94.35041070392857
aF94.35570994910695
aF94.36100889668359
aF94.36630754670864
aF94.37160589923221
aF94.37690395430441
aF94.38220171197534
aF94.38749917229505
aF94.39279633531363
aF94.39809320108114
aF94.40338976964757
aF94.40868604106298
aF94.41398201537736
aF94.41927769264072
aF94.42457307290302
aF94.42986815621421
aF94.43516294262429
aF94.44045743218317
aF94.44575162494075
aF94.45104552094699
aF94.45633912025174
aF94.46163242290491
aF94.46692542895634
aF94.47221813845591
aF94.47751055145346
aF94.4828026679988
aF94.48809448814173
aF94.49338601193207
aF94.4986772394196
aF94.50396817065408
aF94.50925880568528
aF94.51454914456292
aF94.51983918733676
aF94.52512893405647
aF94.53041838477179
aF94.53570753953238
aF94.54099639838793
aF94.5462849613881
aF94.55157322858251
aF94.5568612000208
aF94.56214887575261
aF94.56743625582752
aF94.57272334029511
aF94.57801012920498
aF94.58329662260668
aF94.58858282054976
aF94.59386872308374
aF94.59915433025816
aF94.6044396421225
aF94.60972465872628
aF94.61500938011896
aF94.62029380635002
aF94.62557793746889
aF94.63086177352503
aF94.63614531456784
aF94.64142856064674
aF94.64671151181112
aF94.65199416811038
aF94.65727652959386
aF94.66255859631093
aF94.66784036831093
aF94.67312184564318
aF94.678403028357
aF94.68368391650169
aF94.68896451012652
aF94.69424480928078
aF94.69952481401371
aF94.70480452437458
aF94.7100839404126
aF94.71536306217698
aF94.72064188971694
aF94.72592042308166
aF94.73119866232032
aF94.73647660748209
aF94.74175425861608
aF94.74703161577148
aF94.75230867899737
aF94.75758544834287
aF94.76286192385707
aF94.76813810558906
aF94.77341399358788
aF94.77868958790262
aF94.78396488858229
aF94.78923989567592
aF94.79451460923254
aF94.79978902930111
aF94.80506315593065
aF94.81033698917012
aF94.81561052906846
aF94.82088377567464
aF94.82615672903758
aF94.83142938920619
aF94.83670175622937
aF94.84197383015602
aF94.847245611035
aF94.8525170989152
aF94.85778829384543
aF94.86305919587456
aF94.86832980505137
aF94.87360012142472
aF94.87887014504336
aF94.88413987595608
aF94.88940931421166
aF94.89467845985885
aF94.89994731294638
aF94.90521587352299
aF94.91048414163738
aF94.91575211733824
aF94.92101980067429
aF94.92628719169417
aF94.93155429044654
aF94.93682109698007
aF94.94208761134337
aF94.94735383358507
aF94.95261976375376
aF94.95788540189804
aF94.96315074806648
aF94.96841580230766
aF94.97368056467013
aF94.9789450352024
aF94.98420921395304
aF94.98947310097051
aF94.99473669630333
aF95.0
aF95.00526301210897
aF95.01052573267869
aF95.01578816175763
aF95.02105029939419
aF95.0263121456368
aF95.03157370053387
aF95.03683496413377
aF95.0420959364849
aF95.04735661763561
aF95.05261700763425
aF95.05787710652916
aF95.06313691436866
aF95.06839643120105
aF95.07365565707464
aF95.0789145920377
aF95.08417323613851
aF95.08943158942533
aF95.0946896519464
aF95.09994742374992
aF95.10520490488415
aF95.11046209539727
aF95.11571899533746
aF95.12097560475291
aF95.12623192369179
aF95.13148795220224
aF95.1367436903324
aF95.14199913813037
aF95.14725429564429
aF95.15250916292223
aF95.1577637400123
aF95.16301802696255
aF95.16827202382105
aF95.17352573063583
aF95.17877914745492
aF95.18403227432636
aF95.1892851112981
aF95.1945376584182
aF95.19978991573458
aF95.20504188329524
aF95.2102935611481
aF95.21554494934112
aF95.22079604792222
aF95.2260468569393
aF95.23129737644027
aF95.23654760647301
aF95.24179754708538
aF95.24704719832526
aF95.25229656024048
aF95.25754563287887
aF95.26279441628824
aF95.26804291051643
aF95.2732911156112
aF95.27853903162034
aF95.28378665859161
aF95.28903399657277
aF95.29428104561154
aF95.29952780575567
aF95.30477427705287
aF95.31002045955084
aF95.31526635329726
aF95.3205119583398
aF95.32575727472612
aF95.33100230250388
aF95.33624704172071
aF95.34149149242423
aF95.34673565466203
aF95.35197952848173
aF95.35722311393091
aF95.36246641105713
aF95.36770941990795
aF95.37295214053091
aF95.37819457297354
aF95.38343671728336
aF95.38867857350787
aF95.39392014169457
aF95.39916142189091
aF95.40440241414439
aF95.40964311850244
aF95.4148835350125
aF95.42012366372201
aF95.42536350467836
aF95.43060305792896
aF95.4358423235212
aF95.44108130150245
aF95.44631999192006
aF95.4515583948214
aF95.4567965102538
aF95.46203433826454
aF95.46727187890099
aF95.4725091322104
aF95.47774609824009
aF95.4829827770373
aF95.48821916864928
aF95.4934552731233
aF95.49869109050658
aF95.50392662084633
aF95.50916186418976
aF95.51439682058407
aF95.51963149007642
aF95.524865872714
aF95.53009996854395
aF95.5353337776134
aF95.5405672999695
aF95.54580053565934
aF95.55103348473003
aF95.55626614722867
aF95.56149852320232
aF95.56673061269805
aF95.57196241576293
aF95.57719393244395
aF95.58242516278817
aF95.58765610684259
aF95.5928867646542
aF95.59811713627
aF95.60334722173695
aF95.60857702110204
aF95.61380653441218
aF95.61903576171431
aF95.62426470305536
aF95.62949335848225
aF95.63472172804185
aF95.63994981178107
aF95.64517760974674
aF95.65040512198576
aF95.65563234854496
aF95.66085928947116
aF95.66608594481119
aF95.67131231461184
aF95.67653839891993
aF95.68176419778223
aF95.68698971124549
aF95.69221493935649
aF95.69743988216194
aF95.7026645397086
aF95.70788891204319
aF95.71311299921238
aF95.71833680126291
aF95.7235603182414
aF95.72878355019456
aF95.73400649716902
aF95.73922915921143
aF95.74445153636842
aF95.7496736286866
aF95.75489543621255
aF95.7601169589929
aF95.7653381970742
aF95.77055915050303
aF95.77577981932593
aF95.78100020358944
aF95.78622030334009
aF95.79144011862438
aF95.79665964948882
aF95.80187889597991
aF95.8070978581441
aF95.81231653602788
aF95.81753492967766
aF95.82275303913993
aF95.82797086446107
aF95.83318840568751
aF95.83840566286565
aF95.84362263604189
aF95.84883932526257
aF95.85405573057407
aF95.85927185202274
aF95.86448768965492
aF95.86970324351692
aF95.87491851365508
aF95.88013350011565
aF95.88534820294495
aF95.89056262218926
aF95.89577675789482
aF95.90099061010788
aF95.90620417887469
aF95.91141746424145
aF95.91663046625439
aF95.9218431849597
aF95.92705562040356
aF95.93226777263216
aF95.93747964169165
aF95.94269122762817
aF95.94790253048787
aF95.95311355031686
aF95.95832428716125
aF95.96353474106714
aF95.96874491208062
aF95.97395480024775
aF95.97916440561461
aF95.98437372822724
aF95.98958276813167
aF95.99479152537391
aF96.0
aF96.00520819205592
aF96.01041610158765
aF96.01562372864116
aF96.02083107326243
aF96.0260381354974
aF96.031244915392
aF96.03645141299214
aF96.04165762834376
aF96.04686356149273
aF96.05206921248495
aF96.0572745813663
aF96.06247966818262
aF96.06768447297978
aF96.0728889958036
aF96.0780932366999
aF96.08329719571451
aF96.08850087289322
aF96.0937042682818
aF96.09890738192604
aF96.1041102138717
aF96.10931276416453
aF96.11451503285026
aF96.11971701997463
aF96.12491872558333
aF96.13012014972206
aF96.13532129243653
aF96.1405221537724
aF96.14572273377532
aF96.15092303249095
aF96.15612304996495
aF96.1613227862429
aF96.16652224137046
aF96.17172141539321
aF96.17692030835673
aF96.18211892030659
aF96.18731725128839
aF96.19251530134764
aF96.1977130705299
aF96.2029105588807
aF96.20810776644555
aF96.21330469326995
aF96.21850133939938
aF96.22369770487933
aF96.22889378975526
aF96.23408959407264
aF96.23928511787689
aF96.24448036121345
aF96.24967532412772
aF96.25487000666512
aF96.26006440887103
aF96.26525853079085
aF96.27045237246992
aF96.27564593395361
aF96.28083921528727
aF96.28603221651622
aF96.29122493768578
aF96.29641737884126
aF96.30160954002794
aF96.30680142129111
aF96.31199302267605
aF96.317184344228
aF96.32237538599222
aF96.32756614801393
aF96.33275663033837
aF96.33794683301072
aF96.34313675607619
aF96.34832639957997
aF96.35351576356723
aF96.35870484808314
aF96.36389365317281
aF96.36908217888141
aF96.37427042525407
aF96.37945839233586
aF96.38464608017192
aF96.38983348880731
aF96.39502061828712
aF96.40020746865642
aF96.40539403996023
aF96.41058033224361
aF96.4157663455516
aF96.42095207992918
aF96.42613753542138
aF96.43132271207318
aF96.43650760992955
aF96.44169222903547
aF96.44687656943589
aF96.45206063117574
aF96.45724441429995
aF96.46242791885346
aF96.46761114488116
aF96.47279409242795
aF96.4779767615387
aF96.48315915225828
aF96.48834126463156
aF96.49352309870336
aF96.49870465451855
aF96.50388593212193
aF96.5090669315583
aF96.51424765287247
aF96.51942809610924
aF96.52460826131335
aF96.52978814852958
aF96.53496775780266
aF96.54014708917737
aF96.54532614269839
aF96.55050491841045
aF96.55568341635825
aF96.56086163658648
aF96.56603957913983
aF96.57121724406295
aF96.57639463140049
aF96.5815717411971
aF96.58674857349739
aF96.591925128346
aF96.59710140578754
aF96.60227740586657
aF96.60745312862771
aF96.6126285741155
aF96.61780374237452
aF96.6229786334493
aF96.62815324738438
aF96.63332758422428
aF96.6385016440135
aF96.64367542679655
aF96.64884893261792
aF96.65402216152208
aF96.65919511355348
aF96.66436778875658
aF96.66954018717581
aF96.67471230885562
aF96.6798841538404
aF96.68505572217457
aF96.6902270139025
aF96.69539802906858
aF96.70056876771719
aF96.70573922989266
aF96.71090941563935
aF96.71607932500159
aF96.7212489580237
aF96.72641831474998
aF96.73158739522474
aF96.73675619949223
aF96.74192472759677
aF96.74709297958259
aF96.75226095549395
aF96.7574286553751
aF96.76259607927021
aF96.76776322722355
aF96.77293009927931
aF96.77809669548166
aF96.78326301587481
aF96.78842906050289
aF96.79359482941007
aF96.79876032264049
aF96.8039255402383
aF96.80909048224758
aF96.81425514871248
aF96.81941953967706
aF96.82458365518542
aF96.82974749528164
aF96.83491106000976
aF96.84007434941384
aF96.84523736353792
aF96.85040010242601
aF96.85556256612213
aF96.8607247546703
aF96.86588666811448
aF96.87104830649868
aF96.87620966986684
aF96.88137075826292
aF96.88653157173086
aF96.8916921103146
aF96.89685237405806
aF96.90201236300514
aF96.90717207719973
aF96.91233151668574
aF96.91749068150702
aF96.92264957170744
aF96.92780818733084
aF96.93296652842108
aF96.93812459502195
aF96.94328238717729
aF96.94843990493091
aF96.95359714832658
aF96.95875411740809
aF96.9639108122192
aF96.96906723280368
aF96.97422337920526
aF96.97937925146768
aF96.98453484963466
aF96.9896901737499
aF96.99484522385713
aF97.0
aF97.0051545022222
aF97.01030873056739
aF97.01546268507923
aF97.02061636580135
aF97.02576977277738
aF97.03092290605093
aF97.03607576566563
aF97.04122835166504
aF97.04638066409278
aF97.05153270299239
aF97.05668446840743
aF97.06183596038146
aF97.06698717895802
aF97.07213812418061
aF97.07728879609277
aF97.082439194738
aF97.08758932015976
aF97.09273917240156
aF97.09788875150684
aF97.10303805751909
aF97.10818709048172
aF97.11333585043818
aF97.11848433743187
aF97.12363255150623
aF97.12878049270464
aF97.13392816107047
aF97.13907555664713
aF97.14422267947796
aF97.14936952960632
aF97.15451610707554
aF97.15966241192895
aF97.16480844420988
aF97.16995420396162
aF97.17509969122749
aF97.18024490605073
aF97.18538984847466
aF97.19053451854249
aF97.19567891629751
aF97.20082304178294
aF97.205966895042
aF97.21111047611791
aF97.21625378505387
aF97.22139682189307
aF97.2265395866787
aF97.23168207945392
aF97.23682430026189
aF97.24196624914575
aF97.24710792614863
aF97.25224933131366
aF97.25739046468397
aF97.26253132630262
aF97.26767191621273
aF97.27281223445738
aF97.2779522810796
aF97.28309205612247
aF97.28823155962904
aF97.29337079164233
aF97.29850975220535
aF97.30364844136113
aF97.30878685915265
aF97.3139250056229
aF97.31906288081488
aF97.32420048477151
aF97.32933781753577
aF97.3344748791506
aF97.33961166965892
aF97.34474818910365
aF97.3498844375277
aF97.35502041497398
aF97.36015612148535
aF97.36529155710468
aF97.37042672187485
aF97.3755616158387
aF97.38069623903908
aF97.38583059151881
aF97.3909646733207
aF97.39609848448757
aF97.40123202506219
aF97.40636529508737
aF97.41149829460586
aF97.41663102366043
aF97.42176348229383
aF97.4268956705488
aF97.43202758846806
aF97.43715923609432
aF97.44229061347029
aF97.44742172063866
aF97.45255255764212
aF97.45768312452333
aF97.46281342132495
aF97.46794344808964
aF97.47307320486001
aF97.47820269167872
aF97.48333190858835
aF97.48846085563153
aF97.49358953285082
aF97.49871794028884
aF97.50384607798813
aF97.50897394599124
aF97.51410154434076
aF97.51922887307919
aF97.52435593224905
aF97.52948272189288
aF97.53460924205315
aF97.53973549277238
aF97.54486147409304
aF97.54998718605759
aF97.5551126287085
aF97.56023780208821
aF97.56536270623914
aF97.57048734120374
aF97.57561170702442
aF97.58073580374356
aF97.58585963140357
aF97.59098319004681
aF97.59610647971567
aF97.6012295004525
aF97.60635225229964
aF97.61147473529944
aF97.6165969494942
aF97.62171889492625
aF97.62684057163789
aF97.63196197967139
aF97.63708311906906
aF97.64220398987315
aF97.64732459212593
aF97.65244492586962
aF97.65756499114649
aF97.66268478799874
aF97.66780431646859
aF97.67292357659824
aF97.67804256842989
aF97.68316129200569
aF97.68827974736786
aF97.6933979345585
aF97.69851585361981
aF97.70363350459388
aF97.70875088752287
aF97.71386800244886
aF97.71898484941399
aF97.72410142846032
aF97.72921773962995
aF97.73433378296492
aF97.73944955850733
aF97.74456506629922
aF97.74968030638259
aF97.75479527879949
aF97.75990998359194
aF97.76502442080194
aF97.77013859047148
aF97.77525249264254
aF97.78036612735708
aF97.78547949465708
aF97.79059259458448
aF97.7957054271812
aF97.8008179924892
aF97.80593029055038
aF97.81104232140663
aF97.81615408509987
aF97.82126558167197
aF97.82637681116479
aF97.83148777362021
aF97.83659846908007
aF97.8417088975862
aF97.84681905918046
aF97.85192895390463
aF97.85703858180054
aF97.86214794290998
aF97.86725703727473
aF97.87236586493657
aF97.87747442593725
aF97.88258272031854
aF97.88769074812215
aF97.89279850938985
aF97.89790600416333
aF97.90301323248433
aF97.9081201943945
aF97.91322688993556
aF97.91833331914918
aF97.92343948207701
aF97.92854537876073
aF97.93365100924197
aF97.93875637356236
aF97.94386147176351
aF97.94896630388705
aF97.95407086997457
aF97.95917517006765
aF97.9642792042079
aF97.96938297243685
aF97.97448647479608
aF97.97958971132712
aF97.98469268207153
aF97.98979538707079
aF97.99489782636645
aF98.0
aF98.00510190801293
aF98.01020355044673
aF98.01530492734285
aF98.02040603874276
aF98.02550688468793
aF98.03060746521976
aF98.0357077803797
aF98.04080783020915
aF98.04590761474952
aF98.05100713404222
aF98.05610638812863
aF98.0612053770501
aF98.06630410084801
aF98.07140255956371
aF98.07650075323853
aF98.08159868191383
aF98.08669634563088
aF98.09179374443104
aF98.09689087835557
aF98.10198774744578
aF98.10708435174291
aF98.11218069128827
aF98.1172767661231
aF98.12237257628864
aF98.12746812182611
aF98.13256340277675
aF98.13765841918178
aF98.14275317108238
aF98.14784765851975
aF98.15294188153507
aF98.1580358401695
aF98.16312953446422
aF98.16822296446034
aF98.17331613019904
aF98.17840903172143
aF98.18350166906862
aF98.18859404228171
aF98.1936861514018
aF98.19877799647
aF98.20386957752734
aF98.2089608946149
aF98.21405194777374
aF98.2191427370449
aF98.2242332624694
aF98.22932352408826
aF98.2344135219425
aF98.23950325607312
aF98.24459272652109
aF98.2496819333274
aF98.25477087653302
aF98.2598595561789
aF98.26494797230598
aF98.2700361249552
aF98.27512401416749
aF98.28021163998376
aF98.28529900244492
aF98.29038610159185
aF98.29547293746543
aF98.30055951010655
aF98.30564581955606
aF98.3107318658548
aF98.31581764904364
aF98.32090316916337
aF98.32598842625484
aF98.33107342035883
aF98.33615815151617
aF98.34124261976763
aF98.34632682515398
aF98.35141076771599
aF98.35649444749441
aF98.36157786453
aF98.3666610188635
aF98.37174391053561
aF98.37682653958706
aF98.38190890605854
aF98.38699100999075
aF98.39207285142437
aF98.39715443040006
aF98.40223574695851
aF98.40731680114035
aF98.41239759298622
aF98.41747812253675
aF98.42255838983256
aF98.42763839491425
aF98.43271813782245
aF98.4377976185977
aF98.44287683728061
aF98.44795579391175
aF98.45303448853164
aF98.45811292118086
aF98.46319109189992
aF98.46826900072936
aF98.4733466477097
aF98.47842403288143
aF98.48350115628506
aF98.48857801796105
aF98.49365461794989
aF98.49873095629202
aF98.50380703302791
aF98.50888284819801
aF98.51395840184273
aF98.5190336940025
aF98.52410872471773
aF98.52918349402881
aF98.53425800197614
aF98.5393322486001
aF98.54440623394105
aF98.54947995803936
aF98.55455342093535
aF98.55962662266938
aF98.56469956328178
aF98.56977224281286
aF98.57484466130292
aF98.57991681879226
aF98.58498871532116
aF98.5900603509299
aF98.59513172565875
aF98.60020283954795
aF98.60527369263775
aF98.6103442849684
aF98.6154146165801
aF98.62048468751307
aF98.62555449780751
aF98.63062404750362
aF98.63569333664158
aF98.64076236526155
aF98.6458311334037
aF98.6508996411082
aF98.65596788841515
aF98.6610358753647
aF98.66610360199697
aF98.67117106835208
aF98.67623827447011
aF98.68130522039117
aF98.68637190615532
aF98.69143833180262
aF98.69650449737316
aF98.70157040290697
aF98.70663604844408
aF98.71170143402453
aF98.71676655968832
aF98.72183142547549
aF98.72689603142601
aF98.73196037757987
aF98.73702446397704
aF98.74208829065749
aF98.7471518576612
aF98.75221516502808
aF98.75727821279807
aF98.76234100101111
aF98.76740352970711
aF98.77246579892596
aF98.77752780870759
aF98.78258955909183
aF98.78765105011861
aF98.79271228182775
aF98.79777325425913
aF98.80283396745257
aF98.80789442144793
aF98.812954616285
aF98.81801455200362
aF98.82307422864359
aF98.82813364624468
aF98.83319280484669
aF98.8382517044894
aF98.84331034521254
aF98.84836872705588
aF98.85342685005918
aF98.85848471426213
aF98.8635423197045
aF98.86859966642594
aF98.8736567544662
aF98.87871358386495
aF98.88377015466189
aF98.88882646689666
aF98.89388252060893
aF98.89893831583835
aF98.90399385262458
aF98.90904913100722
aF98.91410415102591
aF98.91915891272023
aF98.92421341612983
aF98.92926766129425
aF98.93432164825309
aF98.93937537704592
aF98.94442884771229
aF98.94948206029176
aF98.95453501482385
aF98.9595877113481
aF98.96464014990404
aF98.96969233053117
aF98.97474425326898
aF98.97979591815695
aF98.98484732523458
aF98.98989847454133
aF98.99494936611666
aF99.0
aF99.00505037623081
aF99.0101004948485
aF99.0151503558925
aF99.02019995940222
aF99.02524930541705
aF99.03029839397638
aF99.03534722511958
aF99.04039579888602
aF99.04544411531506
aF99.05049217444606
aF99.05553997631834
aF99.06058752097123
aF99.06563480844405
aF99.0706818387761
aF99.07572861200669
aF99.08077512817509
aF99.08582138732059
aF99.09086738948247
aF99.09591313469996
aF99.10095862301232
aF99.10600385445879
aF99.11104882907858
aF99.11609354691093
aF99.12113800799504
aF99.12618221237011
aF99.13122616007531
aF99.13626985114983
aF99.14131328563285
aF99.1463564635635
aF99.15139938498095
aF99.15644204992432
aF99.16148445843275
aF99.16652661054536
aF99.17156850630124
aF99.1766101457395
aF99.18165152889924
aF99.18669265581951
aF99.1917335265394
aF99.19677414109796
aF99.20181449953424
aF99.20685460188726
aF99.21189444819608
aF99.2169340384997
aF99.22197337283713
aF99.22701245124736
aF99.2320512737694
aF99.23708984044222
aF99.24212815130478
aF99.24716620639605
aF99.25220400575496
aF99.25724154942047
aF99.2622788374315
aF99.26731586982696
aF99.27235264664579
aF99.27738916792686
aF99.28242543370907
aF99.2874614440313
aF99.29249719893241
aF99.29753269845128
aF99.30256794262674
aF99.30760293149764
aF99.31263766510283
aF99.31767214348109
aF99.32270636667126
aF99.32774033471213
aF99.3327740476425
aF99.33780750550115
aF99.34284070832683
aF99.34787365615834
aF99.3529063490344
aF99.35793878699377
aF99.36297097007517
aF99.36800289831733
aF99.37303457175895
aF99.37806599043876
aF99.38309715439543
aF99.38812806366765
aF99.39315871829409
aF99.39818911831343
aF99.40321926376429
aF99.40824915468535
aF99.41327879111522
aF99.41830817309254
aF99.42333730065593
aF99.42836617384397
aF99.43339479269528
aF99.43842315724842
aF99.443451267542
aF99.44847912361456
aF99.45350672550465
aF99.45853407325085
aF99.46356116689167
aF99.46858800646564
aF99.47361459201129
aF99.4786409235671
aF99.48366700117161
aF99.48869282486326
aF99.49371839468057
aF99.498743710662
aF99.50376877284599
aF99.508793581271
aF99.51381813597547
aF99.51884243699783
aF99.5238664843765
aF99.52889027814989
aF99.53391381835641
aF99.53893710503444
aF99.54396013822235
aF99.54898291795854
aF99.55400544428134
aF99.55902771722914
aF99.56404973684026
aF99.56907150315303
aF99.57409301620578
aF99.57911427603682
aF99.58413528268446
aF99.58915603618699
aF99.5941765365827
aF99.59919678390986
aF99.60421677820673
aF99.60923651951158
aF99.61425600786265
aF99.61927524329818
aF99.62429422585637
aF99.62931295557549
aF99.6343314324937
aF99.6393496566492
aF99.64436762808022
aF99.6493853468249
aF99.65440281292142
aF99.65942002640794
aF99.66443698732262
aF99.66945369570358
aF99.67447015158896
aF99.67948635501689
aF99.68450230602548
aF99.68951800465283
aF99.69453345093702
aF99.69954864491613
aF99.70456358662827
aF99.70957827611147
aF99.71459271340379
aF99.71960689854328
aF99.72462083156798
aF99.72963451251589
aF99.73464794142505
aF99.73966111833346
aF99.74467404327912
aF99.74968671630002
aF99.75469913743412
aF99.75971130671941
aF99.76472322419383
aF99.76973488989535
aF99.77474630386187
aF99.77975746613137
aF99.78476837674175
aF99.7897790357309
aF99.79478944313676
aF99.7997995989972
aF99.80480950335009
aF99.80981915623332
aF99.81482855768475
aF99.81983770774224
aF99.82484660644363
aF99.82985525382675
aF99.83486364992943
aF99.83987179478947
aF99.84487968844472
aF99.84988733093293
aF99.8548947222919
aF99.85990186255943
aF99.86490875177326
aF99.86991538997117
aF99.87492177719089
aF99.87992791347018
aF99.88493379884676
aF99.88993943335835
aF99.89494481704267
aF99.89994994993741
aF99.90495483208028
aF99.90995946350894
aF99.91496384426108
aF99.91996797437437
aF99.92497185388645
aF99.92997548283498
aF99.93497886125758
aF99.93998198919189
aF99.94498486667553
aF99.9499874937461
aF99.95498987044118
aF99.9599919967984
aF99.96499387285532
aF99.9699954986495
aF99.9749968742185
aF99.9799979995999
aF99.98499887483122
aF99.98999949994999
aF99.99499987499375
aF100.0
a.